(lp1
(lp2
(S'4'
S'2'
S'3'
tp3
a(lp4
F0.058549200000000003
aF0.057603000000000001
aF0.0463895
aF0.046702199999999999
aF0.049804500000000002
aF0.046129200000000002
aF0.049065499999999998
aF0.046165499999999998
aF0.037236600000000002
aF0.035610000000000003
aF0.048873899999999998
aF0.0589591
aF0.055431599999999998
aF0.050924700000000003
aF0.049558699999999997
aF0.050131299999999997
aF0.043681600000000001
aF0.054398780000000001
aF0.037588200000000002
aF0.052969799999999997
aF0.044510250000000001
aF0.061073500000000003
aF0.045162500000000001
aF0.049255899999999998
aF0.068020499999999998
aF0.043790599999999999
aF0.042893199999999999
aF0.053598600000000003
aF0.042693500000000002
aF0.047581600000000002
aF0.059396299999999999
aF0.033503600000000001
aF0.048057799999999998
aF0.049228800000000003
aF0.048816600000000002
aF0.040324600000000002
aF0.043806299999999999
aF0.0504743
aF0.058233500000000001
aF0.057752400000000002
aF0.049345899999999998
aF0.054288099999999999
aF0.0555883
aF0.035518000000000001
aF0.039196599999999998
aF0.052564380000000001
aF0.060506499999999998
aF0.049099900000000002
aF0.039832399999999997
aF0.056342499999999997
aF0.062618270000000004
aF0.050501499999999998
aF0.0492176
aF0.036609900000000001
aF0.0620075
aF0.054747900000000002
aF0.049789899999999998
aF0.075630299999999998
aF0.041699399999999998
aF0.043740099999999997
aF0.046620700000000001
aF0.045790400000000002
aF0.052895699999999997
aF0.060675899999999998
aF0.041532199999999998
aF0.053702800000000002
aF0.038044099999999997
aF0.045385000000000002
aF0.048675000000000003
aF0.049092799999999999
aF0.0543048
aF0.039141299999999997
aF0.040928899999999997
aF0.040607299999999999
aF0.053045799999999997
aF0.069006899999999996
aF0.053143099999999999
aF0.051403499999999998
aF0.047601999999999998
aF0.055326
aF0.042549700000000003
aF0.039754499999999998
aF0.045560299999999998
aF0.050228500000000002
aF0.045104400000000003
aF0.049427100000000002
aF0.0483337
aF0.048177400000000002
aF0.047551000000000003
aF0.053438699999999999
aF0.071349999999999997
aF0.041872600000000003
aF0.041073900000000003
aF0.0457703
aF0.051609599999999999
aF0.062567999999999999
aF0.051386000000000001
aF0.047247499999999998
aF0.043305400000000001
aF0.053460199999999999
aF0.042311399999999999
aF0.050098799999999999
aF0.047222800000000002
aF0.0412176
aF0.042416500000000003
aF0.0503978
aF0.049636199999999998
aF0.053433500000000002
aF0.045771300000000001
aF0.042891699999999998
aF0.043008900000000003
aF0.054650400000000002
aF0.071496299999999999
aF0.0379006
aF0.050565499999999999
aF0.049914
aF0.0509176
aF0.0470642
aF0.043819400000000001
aF0.050207099999999998
aF0.052248000000000003
aF0.046214100000000001
aF0.057258000000000003
aF0.042894700000000001
aF0.046758099999999997
aF0.054969299999999999
aF0.052664500000000003
aF0.070468900000000001
aF0.051536699999999998
aF0.052437299999999999
aF0.055948999999999999
aF0.046206299999999999
aF0.045727449999999996
aF0.0658744
aF0.050304500000000002
aF0.043070400000000002
aF0.045817400000000001
aF0.065907099999999996
aF0.040979000000000002
aF0.0482888
aF0.037005099999999999
aF0.045420299999999997
aF0.041985799999999997
aF0.066725000000000007
aF0.048872369999999998
aF0.046639199999999999
aF0.044387000000000003
aF0.050283700000000001
aF0.0605464
aF0.068984900000000002
aF0.053010399999999999
aF0.047777699999999999
aF0.045575900000000003
aF0.054319199999999998
aF0.049437000000000002
aF0.058335100000000001
aF0.052694199999999997
aF0.0459339
aF0.053714900000000003
aF0.044238399999999997
aF0.048267600000000001
aF0.040960400000000001
aF0.049151050000000002
aF0.045241400000000001
aF0.0543709
aF0.051457099999999999
aF0.057214229999999998
aF0.043923259999999999
aF0.044372700000000001
aF0.045732399999999999
aF0.046959899999999999
aF0.047483999999999998
aF0.049614400000000003
aF0.053934900000000001
aF0.048715099999999997
aF0.053433599999999998
aF0.040453500000000003
aF0.067018099999999997
aF0.044817799999999998
aF0.049574
aF0.044561799999999999
aF0.0503761
aF0.047402300000000001
aF0.046160399999999997
aF0.047103399999999997
aF0.042888999999999997
aF0.045570699999999999
aF0.049554299999999996
aF0.045551500000000002
aF0.057265099999999999
aF0.042967900000000003
aF0.058982399999999997
aF0.060139400000000003
aF0.042885399999999997
aF0.048919299999999999
aF0.047997400000000003
aF0.039786000000000002
aF0.038781900000000001
aF0.067104700000000003
aF0.059638989999999996
aF0.062688199999999999
aF0.043893000000000001
aF0.037775799999999998
aF0.039860100000000002
aF0.045207999999999998
aF0.056136199999999997
aF0.061820300000000002
aF0.0430759
aF0.066756700000000002
aF0.039479100000000003
aF0.046201800000000001
aF0.050783799999999997
aF0.043804799999999998
aF0.045594700000000002
aF0.0515732
aF0.041904999999999998
aF0.053099199999999999
aF0.046936699999999998
aF0.055735699999999999
aF0.035518599999999997
aF0.050572650000000004
aF0.053057
aF0.040722599999999998
aF0.044394400000000001
aF0.051138999999999997
aF0.046405000000000002
aF0.054316200000000002
aF0.050146000000000003
aF0.052270400000000002
aF0.0383328
aF0.033446999999999998
aF0.046323900000000001
aF0.046086799999999997
aF0.037489099999999997
aF0.049311599999999997
aF0.058159299999999997
aF0.032043799999999997
aF0.043173099999999999
aF0.047692999999999999
aF0.0671934
aF0.043255399999999999
aF0.038410399999999997
aF0.0525078
aF0.050052300000000001
aF0.072328000000000003
aF0.049463600000000003
aF0.036552500000000002
aF0.057088800000000002
aF0.054584300000000002
aF0.0457797
aF0.049471899999999999
aF0.042901099999999998
aF0.052102799999999998
aF0.054226299999999998
aF0.0400328
aF0.056493799999999997
aF0.055426900000000001
aF0.0573889
aF0.050636399999999998
aF0.049461600000000001
aF0.042685000000000001
aF0.0478132
aF0.0466296
aF0.047314500000000002
aF0.066720699999999994
aF0.071979199999999993
aF0.043111200000000002
aF0.053521199999999998
aF0.063106999999999996
aF0.047602600000000002
aF0.0480849
aF0.047861899999999999
aF0.05035266
aF0.054446300000000003
aF0.046001399999999998
aF0.042483
aF0.055026499999999999
aF0.062760399999999994
aF0.0427395
aF0.050190600000000002
aF0.046724700000000001
aF0.054935699999999997
aF0.054850500000000003
aF0.055407100000000001
aF0.044897699999999999
aF0.058657569999999999
aF0.046687399999999997
aF0.042517600000000003
aF0.036026200000000001
aF0.047657100000000001
aF0.057183699999999997
aF0.070002300000000003
aF0.067661009999999994
aF0.041835700000000003
aF0.062815910000000003
aF0.052360499999999997
aF0.0353896
aF0.0312126
aF0.046607700000000002
aF0.041692800000000002
aF0.045518000000000003
aF0.057104599999999998
aF0.031816400000000002
aF0.069643800000000006
aF0.045025799999999998
aF0.066576399999999994
aF0.056692300000000001
aF0.054940999999999997
aF0.054718099999999999
aF0.0553559
aF0.049299599999999999
aF0.0584637
aF0.038655299999999997
aF0.049993700000000002
aF0.045476200000000001
aF0.037498200000000002
aF0.060013200000000003
aF0.060979400000000003
aF0.051775000000000002
aF0.0517327
aF0.055651899999999997
aF0.061992499999999999
aF0.054671900000000002
aF0.068324099999999999
aF0.0479003
aF0.050526300000000003
aF0.053853600000000001
aF0.0610956
aF0.0541378
aF0.046358900000000001
aF0.0538953
aF0.055026800000000001
aF0.062352149999999995
aF0.047225700000000002
aF0.059506499999999997
aF0.050730699999999997
aF0.045623799999999999
aF0.045508
aF0.061993600000000003
aF0.051839700000000002
aF0.046948700000000003
aF0.050141699999999997
aF0.053404880000000002
aF0.032856799999999999
aF0.042301100000000001
aF0.0567333
aF0.040168700000000002
aF0.0453555
aF0.049649199999999998
aF0.056813900000000001
aF0.038812800000000001
aF0.044109599999999999
aF0.058956799999999997
aF0.058760940000000005
aF0.048057900000000001
aF0.049241100000000003
aF0.051671399999999999
aF0.0476672
aF0.046594400000000001
aF0.043478200000000002
aF0.046239799999999998
aF0.046416300000000001
aF0.037018500000000003
aF0.063897099999999998
aF0.064789800000000008
aF0.049960200000000003
aF0.0432238
aF0.051199469999999997
aF0.042863600000000002
aF0.043556900000000003
aF0.047472100000000003
aF0.047062399999999997
aF0.062141099999999998
aF0.059849600000000003
aF0.051376499999999999
aF0.0494273
aF0.0497359
aF0.0470871
aF0.051800100000000002
aF0.052649500000000002
aF0.045440800000000003
aF0.0382114
aF0.072087300000000007
aF0.035619999999999999
aF0.046380999999999999
aF0.044299100000000001
aF0.043694999999999998
aF0.042079699999999998
aF0.0417813
aF0.0362817
aF0.047278199999999999
aF0.043087399999999998
aF0.055634000000000003
aF0.031927200000000003
aF0.0416884
aF0.064165700000000006
aF0.068303600000000006
aF0.059389499999999998
aF0.050842900000000003
aF0.038488700000000001
aF0.041614900000000003
aF0.046613099999999998
aF0.047942499999999999
aF0.056954900000000003
aF0.056786400000000001
aF0.049401199999999999
aF0.056712600000000002
aF0.0460309
aF0.060879900000000001
aF0.059228299999999998
aF0.067669999999999994
aF0.038840699999999999
aF0.042691100000000003
aF0.051964999999999997
aF0.0389001
aF0.058638989999999995
aF0.064723900000000001
aF0.0406211
aF0.0517303
aF0.046062100000000002
aF0.050044199999999997
aF0.051768700000000001
aF0.043910200000000003
aF0.063552200000000003
aF0.052882699999999998
aF0.059137200000000001
aF0.068103899999999995
aF0.0726662
aF0.044282599999999998
aF0.046139399999999997
aF0.0536791
aF0.045576600000000002
aF0.050037209999999999
aF0.038010000000000002
aF0.061375199999999998
aF0.0424036
aF0.047919700000000003
aF0.044435599999999999
aF0.056625000000000002
aF0.055843299999999998
aF0.059020200000000002
aF0.046996400000000001
aF0.057836800000000001
aF0.049499799999999997
aF0.042098299999999998
aF0.042865599999999997
aF0.045530800000000003
aF0.064272999999999997
aF0.069261699999999995
aF0.050091900000000002
aF0.060244199999999998
aF0.0601234
aF0.052618999999999999
aF0.043896499999999998
aF0.054306300000000002
aF0.054441099999999999
aF0.055186699999999998
aF0.044322599999999997
aF0.0499683
aF0.044338099999999998
aF0.047156000000000003
aF0.064944600000000005
aF0.051245899999999997
aF0.049290199999999999
aF0.043244699999999997
aF0.036048299999999998
aF0.050434
aF0.048835299999999998
aF0.0458422
aF0.0614923
aF0.050436500000000002
aF0.047673500000000001
aF0.048806299999999997
aF0.037773899999999999
aF0.074246800000000002
aF0.048191499999999998
aF0.068134100000000003
aF0.048420600000000001
aF0.044926599999999997
aF0.043449099999999997
aF0.060890399999999997
aF0.041713800000000002
aF0.046532999999999998
aF0.055879600000000001
aF0.057097000000000002
aF0.053529100000000003
aF0.056719100000000001
aF0.038712700000000003
aF0.048339500000000001
aF0.050505000000000001
aF0.032225299999999998
aF0.051355400000000002
aF0.050113699999999997
aF0.057215299999999997
aF0.047756899999999998
aF0.042990500000000001
aF0.059099600000000002
aF0.047843799999999999
aF0.047396000000000001
aF0.05844191
aF0.053758899999999998
aF0.054778899999999998
aF0.065606999999999999
aF0.0522175
aF0.058458799999999998
aF0.0415933
aF0.051532799999999997
aF0.050372300000000002
aF0.061735829999999998
aF0.036367400000000001
aF0.043435000000000001
aF0.050044199999999997
aF0.047261999999999998
aF0.043217400000000003
aF0.049794600000000001
aF0.0421213
aF0.046050899999999999
aF0.043040700000000001
aF0.057905999999999999
aF0.040726499999999999
aF0.045936699999999997
aF0.081824900000000006
aF0.044883300000000001
aF0.064629900000000004
aF0.049357699999999997
aF0.0430636
aF0.054364580000000003
aF0.047761600000000001
aF0.0780888
aF0.045159100000000001
aF0.060450299999999998
aF0.044324299999999997
aF0.048624000000000001
aF0.060114099999999997
aF0.044915900000000002
aF0.0489244
aF0.066946400000000003
aF0.053753599999999999
aF0.056135150000000002
aF0.0501973
aF0.053142300000000003
aF0.041131899999999999
aF0.042812500000000003
aF0.031951800000000002
aF0.050203900000000003
aF0.053707499999999998
aF0.048124100000000003
aF0.049925499999999998
aF0.04283874
aF0.048095699999999998
aF0.055263100000000002
aF0.047890099999999998
aF0.047399700000000003
aF0.038177099999999999
aF0.054625199999999999
aF0.054279099999999997
aF0.047788600000000001
aF0.041111000000000002
aF0.054205400000000001
aF0.0531323
aF0.059185599999999998
aF0.049473000000000003
aF0.048584599999999999
aF0.048103100000000003
aF0.047550000000000002
aF0.053064100000000003
aF0.040761199999999997
aF0.053495500000000001
aF0.051174799999999999
aF0.046621999999999997
aF0.046177200000000002
aF0.051272999999999999
aF0.051280699999999999
aF0.053378500000000002
aF0.057809199999999998
aF0.053722199999999998
aF0.0531815
aF0.050072899999999997
aF0.049535799999999998
aF0.068438799999999994
aF0.0763794
aF0.055886129999999999
aF0.044445100000000001
aF0.061751599999999997
aF0.045039299999999997
aF0.043565
aF0.054848899999999999
aF0.050619400000000002
aF0.058249599999999999
aF0.038703799999999997
aF0.049634499999999998
aF0.055834799999999997
aF0.048601930000000002
aF0.053074299999999998
aF0.037359700000000003
aF0.049352
aF0.050120499999999998
aF0.0458065
aF0.039982999999999998
aF0.058781600000000003
aF0.063298300000000002
aF0.052971899999999995
aF0.0702821
aF0.055085599999999998
aF0.049162499999999998
aF0.0490004
aF0.0468154
aF0.043169720000000002
aF0.043876800000000001
aF0.0451159
aF0.045359200000000002
aF0.0360399
aF0.0486119
aF0.047378299999999998
aF0.031426500000000003
aF0.064766000000000004
aF0.042552699999999999
aF0.058872899999999999
aF0.046956600000000001
aF0.040413200000000003
aF0.052690599999999997
aF0.062656299999999998
aF0.059419
aF0.044496899999999999
aF0.038693699999999998
aF0.040901399999999997
aF0.0499789
aF0.046730399999999998
aF0.033263599999999997
aF0.036777999999999998
aF0.045582200000000003
aF0.038533299999999999
aF0.049178100000000002
aF0.050576999999999997
aF0.050512899999999999
aF0.044208499999999998
aF0.075327500000000006
aF0.055254400000000002
aF0.041546699999999999
aF0.045858900000000001
aF0.042700000000000002
aF0.0346734
aF0.0567625
aF0.051828399999999997
aF0.078864299999999998
aF0.043474199999999998
aF0.036690300000000002
aF0.054219999999999997
aF0.045080799999999997
aF0.042684800000000002
aF0.073235099999999997
aF0.0466221
aF0.046382800000000002
aF0.058778799999999999
aF0.0467845
aF0.044103200000000002
aF0.056566999999999999
aF0.039726299999999999
aF0.052364099999999997
aF0.051045100000000003
aF0.041588100000000003
aF0.0487743
aF0.060496899999999999
aF0.040103229999999997
aF0.037733500000000003
aF0.070622299999999999
aF0.0454665
aF0.048052499999999998
aF0.073940199999999998
aF0.0484611
aF0.0472285
aF0.052305400000000002
aF0.041833700000000001
aF0.052675800000000002
aF0.056927860000000004
aF0.069910799999999995
aF0.042515900000000002
aF0.045714999999999999
aF0.056105599999999999
aF0.043538399999999998
aF0.043929799999999998
aF0.066156199999999998
aF0.054833199999999999
aF0.041720500000000001
aF0.058791000000000003
aF0.035328199999999997
aF0.043112699999999997
aF0.041821499999999998
aF0.044749999999999998
aF0.042821199999999997
aF0.0272149
aF0.051104400000000001
aF0.051237100000000001
aF0.058083900000000001
aF0.039985899999999998
aF0.0489471
aF0.069791000000000006
aF0.059795300000000003
aF0.083046400000000006
aF0.044950999999999998
aF0.042432699999999997
aF0.050237900000000002
aF0.052804499999999997
aF0.055326699999999999
aF0.064562099999999997
aF0.053015100000000003
aF0.049336579999999998
aF0.0507272
aF0.047210000000000002
aF0.0538492
aF0.057364100000000001
aF0.0504859
aF0.043287300000000001
aF0.059591400000000003
aF0.040870499999999997
aF0.053392599999999998
aF0.045730100000000003
aF0.041008200000000002
aF0.060902600000000001
aF0.058389200000000002
aF0.050893300000000002
aF0.0489886
aF0.049438000000000003
aF0.042925499999999998
aF0.050461300000000001
aF0.050659000000000003
aF0.043996
aF0.043688499999999998
aF0.053448700000000002
aF0.049571299999999999
aF0.049015999999999997
aF0.054160600000000003
aF0.047609169999999999
aF0.052518799999999997
aF0.0601649
aF0.051265100000000001
aF0.061424899999999998
aF0.051982100000000003
aF0.0499905
aF0.051252499999999999
aF0.039987000000000002
aF0.0536569
aF0.065685199999999999
aF0.047024200000000002
aF0.045162399999999998
aF0.0458065
aF0.044338700000000002
aF0.06295444
aF0.043324399999999999
aF0.040832399999999998
aF0.041459700000000002
aF0.041518100000000002
aF0.0463217
aF0.049954199999999997
aF0.049739100000000001
aF0.063175300000000004
aF0.053703300000000002
aF0.053309299999999997
aF0.053495769999999998
aF0.073704699999999998
aF0.047430100000000003
aF0.0457937
aF0.0405837
aF0.063406599999999994
aF0.054171499999999997
aF0.053621599999999998
aF0.0597648
aF0.041573100000000002
aF0.055071000000000002
aF0.047559700000000003
aF0.049681000000000003
aF0.0431659
aF0.056081100000000002
aF0.0464257
aF0.044969299999999997
aF0.062890600000000005
aF0.054893600000000001
aF0.055807799999999998
aF0.046997999999999998
aF0.043954
aF0.056876999999999997
aF0.049137100000000003
aF0.0329319
aF0.044574200000000001
aF0.0437513
aF0.065843200000000005
aF0.047904599999999999
aF0.065139000000000002
aF0.040843699999999997
aF0.040081100000000001
aF0.050335400000000002
aF0.045765199999999999
aF0.051138599999999999
aF0.041053100000000002
aF0.041575399999999998
aF0.043131999999999997
aF0.052526499999999997
aF0.053214400000000002
aF0.040356700000000002
aF0.048905700000000003
aF0.040424599999999998
aF0.040531200000000003
aF0.0461033
aF0.0459397
aF0.056098299999999997
aF0.052050800000000001
aF0.0488841
aF0.040569300000000003
aF0.049362200000000002
aF0.038026299999999999
aF0.057362099999999999
aF0.0483554
aF0.054344099999999999
aF0.046139699999999999
aF0.051396400000000002
aF0.055302700000000003
aF0.051693059999999999
aF0.037378500000000002
aF0.048529500000000003
aF0.057015999999999997
aF0.065844199999999992
aF0.047577800000000003
aF0.045704099999999998
aF0.050805299999999998
aF0.045499299999999999
aF0.039740499999999998
aF0.045059500000000002
aF0.033551600000000001
aF0.059465470000000006
aF0.051208999999999998
aF0.054128000000000003
aF0.047300300000000003
aF0.0446036
aF0.050286200000000003
aF0.034840099999999999
aF0.043852099999999998
aF0.049761199999999998
aF0.041193
aF0.046901400000000003
aF0.044608799999999997
aF0.044045300000000003
aF0.039874
aF0.0603051
aF0.053935400000000001
aF0.045837099999999999
aF0.062348800000000003
aF0.047119800000000003
aF0.062657000000000004
aF0.051127800000000001
aF0.043816300000000002
aF0.055115400000000002
aF0.051129500000000001
aF0.057633700000000003
aF0.047132800000000002
aF0.043336100000000002
aF0.0522742
aF0.043536999999999999
aF0.029315999999999998
aF0.0517011
aF0.043174499999999998
aF0.064643500000000007
aF0.047260200000000002
aF0.057666700000000001
aF0.049564700000000003
aF0.053064500000000001
aF0.040992800000000003
aF0.057151229999999997
aF0.060437200000000003
aF0.058987100000000001
aF0.053681699999999999
aF0.037043399999999997
aF0.0380297
aF0.053712799999999998
aF0.050181000000000003
aF0.043824200000000001
aF0.046265899999999999
aF0.061674699999999999
aF0.0591782
aF0.060079859999999999
aF0.0460823
aF0.0458463
aF0.0444663
aF0.059758400000000003
aF0.050296199999999999
aF0.057748510000000003
aF0.055106000000000002
aF0.062063199999999999
aF0.050891310000000002
aF0.042533399999999999
aF0.055641799999999998
aF0.039611599999999997
aF0.040944399999999999
aF0.041062500000000002
aF0.061936999999999999
aF0.043321699999999998
aF0.062987000000000001
aF0.053620800000000003
aF0.058617000000000002
aF0.053191299999999997
aF0.0462814
aF0.046113000000000001
aF0.038011000000000003
aF0.043020999999999997
aF0.045424199999999998
aF0.0399295
aF0.0525447
aF0.041550400000000001
aF0.0665018
aF0.066241800000000003
aF0.051255000000000002
aF0.052245899999999998
aF0.051664099999999998
aF0.049952999999999997
aF0.043590799999999999
aF0.044680400000000002
aF0.047038400000000001
aF0.049179899999999999
aF0.057087600000000002
aF0.047359999999999999
aF0.058444799999999998
aF0.054794299999999997
aF0.023161600000000001
aF0.064711000000000005
aF0.044139900000000003
aF0.048330900000000003
aF0.051949700000000001
aF0.046213400000000002
aF0.0554739
aF0.042531800000000002
aF0.050092900000000003
aF0.051155600000000002
aF0.048842999999999998
aF0.063670500000000005
aF0.058964200000000001
aF0.046849099999999998
aF0.0537247
aF0.044394099999999999
aF0.049383000000000003
aF0.049786400000000001
aF0.051324700000000001
aF0.050928599999999997
aF0.046578700000000001
aF0.055168740000000001
aF0.043882900000000002
aF0.064351080000000005
aF0.065250199999999994
aF0.042755500000000002
aF0.047683900000000001
aF0.073936100000000005
aF0.060569100000000001
aF0.065151440000000005
aF0.050880000000000002
aF0.040751999999999997
aF0.071650900000000003
aF0.04854
aF0.060059099999999997
aF0.049698399999999997
aF0.039733699999999997
aF0.059191399999999998
aF0.060817799999999998
aF0.053356199999999999
aF0.053740499999999997
aF0.057773199999999997
aF0.050854700000000003
aF0.0417183
aF0.044298999999999998
aF0.062816300000000005
aF0.043293900000000003
aF0.051508100000000001
aF0.055842799999999998
aF0.045428900000000001
aF0.0573474
aF0.052271699999999997
aF0.0550082
aF0.036950200000000002
aF0.074578699999999998
aF0.044887700000000003
aF0.0481375
aF0.054344299999999998
aF0.0392483
aF0.050731999999999999
aF0.059582299999999998
aF0.048684400000000003
aF0.053799800000000002
aF0.055668299999999997
aF0.046251899999999999
aF0.061555800000000001
aF0.056032899999999997
aF0.047785599999999998
aF0.046043500000000001
aF0.051949799999999997
aF0.048982400000000002
aF0.033137199999999999
aF0.066390699999999997
aF0.060834600000000003
aF0.055657499999999999
aF0.046308700000000001
aF0.0483612
aF0.059651900000000001
aF0.052056499999999999
aa(lp5
a(lp6
aa(lp7
(S'4'
S'2'
S'1'
tp8
a(lp9
F0.058549200000000003
aF0.064362370000000002
aF0.051042320000000002
aF0.061853199999999997
aF0.0510556
aF0.063115900000000003
aF0.05187158
aF0.048602359999999997
aF0.037236600000000002
aF0.062029200000000007
aF0.057839889999999998
aF0.0589591
aF0.055431789999999995
aF0.05690771
aF0.049558699999999997
aF0.050131299999999997
aF0.066730600000000001
aF0.052299699999999998
aF0.053042000000000006
aF0.052969799999999997
aF0.042228000000000002
aF0.064743510000000004
aF0.056970400000000004
aF0.049255899999999998
aF0.075975539999999994
aF0.043790599999999999
aF0.082507400000000009
aF0.063195799999999996
aF0.042693500000000002
aF0.047581600000000002
aF0.070702199999999993
aF0.055261000000000005
aF0.051471459999999997
aF0.052988760000000003
aF0.048818029999999998
aF0.04498224
aF0.043806299999999999
aF0.055081270000000002
aF0.081212300000000001
aF0.057752400000000002
aF0.049345899999999998
aF0.05428815
aF0.073279200000000003
aF0.075542999999999999
aF0.058056299999999998
aF0.051548099999999999
aF0.072427199999999997
aF0.059194500000000004
aF0.04464191
aF0.064843269999999995
aF0.062347399999999997
aF0.050501499999999998
aF0.063613699999999995
aF0.066186999999999996
aF0.0620075
aF0.057900300000000002
aF0.036408999999999997
aF0.075630299999999998
aF0.041699399999999998
aF0.053575629999999999
aF0.055026510000000001
aF0.04698273
aF0.054010559999999999
aF0.076732599999999998
aF0.056109699999999998
aF0.055684810000000001
aF0.064129699999999998
aF0.045624480000000002
aF0.05593062
aF0.049092799999999999
aF0.057004609999999997
aF0.056908399999999998
aF0.040928899999999997
aF0.040607299999999999
aF0.053045799999999997
aF0.077933199999999994
aF0.053143169999999997
aF0.051403499999999998
aF0.064172199999999999
aF0.055326
aF0.060951500000000006
aF0.039754499999999998
aF0.045560299999999998
aF0.050228500000000002
aF0.056529200000000002
aF0.049427100000000002
aF0.061971700000000005
aF0.048177400000000002
aF0.047551000000000003
aF0.053440889999999998
aF0.090374399999999994
aF0.058569599999999999
aF0.053810300000000005
aF0.062079499999999996
aF0.051609599999999999
aF0.06562722
aF0.056111590000000003
aF0.052087809999999998
aF0.060898400000000005
aF0.067605899999999997
aF0.062210299999999996
aF0.059575489999999995
aF0.055244559999999998
aF0.052531599999999998
aF0.057702100000000006
aF0.0503978
aF0.060340499999999998
aF0.053433500000000002
aF0.060198300000000003
aF0.066701499999999997
aF0.049627080000000004
aF0.064706
aF0.078417680000000003
aF0.0379006
aF0.050565499999999999
aF0.049914
aF0.0509176
aF0.045309200000000001
aF0.064965800000000004
aF0.06404399999999999
aF0.064963900000000005
aF0.048546010000000001
aF0.057258000000000003
aF0.042894700000000001
aF0.046758099999999997
aF0.06175891
aF0.052664500000000003
aF0.070468900000000001
aF0.052485689999999995
aF0.063162700000000002
aF0.056627009999999998
aF0.054549519999999997
aF0.044317799999999997
aF0.0794826
aF0.055992130000000001
aF0.043070400000000002
aF0.052035100000000001
aF0.063784599999999997
aF0.04966976
aF0.0482888
aF0.037005099999999999
aF0.048096989999999999
aF0.052175799999999994
aF0.0564319
aF0.048872100000000002
aF0.056245469999999999
aF0.051081500000000002
aF0.050283700000000001
aF0.0605464
aF0.076807680000000003
aF0.053010399999999999
aF0.047777699999999999
aF0.045575900000000003
aF0.054956359999999996
aF0.058981350000000002
aF0.062949889999999994
aF0.065454699999999991
aF0.0459339
aF0.069407999999999997
aF0.049803099999999996
aF0.048267600000000001
aF0.045294569999999999
aF0.0446796
aF0.057105299999999998
aF0.060371429999999997
aF0.058298549999999998
aF0.056229399999999999
aF0.043631999999999997
aF0.060244300000000001
aF0.062245800000000004
aF0.046959899999999999
aF0.065587000000000006
aF0.049614400000000003
aF0.06183164
aF0.061158099999999993
aF0.053433599999999998
aF0.040453500000000003
aF0.067018099999999997
aF0.044817799999999998
aF0.049574
aF0.044561799999999999
aF0.066865399999999992
aF0.047402300000000001
aF0.046160549999999995
aF0.059321699999999998
aF0.052757760000000001
aF0.067792500000000006
aF0.033033199999999999
aF0.045551500000000002
aF0.066796079999999994
aF0.049804800000000003
aF0.062738740000000001
aF0.065833240000000001
aF0.049022309999999999
aF0.048919299999999999
aF0.055765470000000004
aF0.039786000000000002
aF0.048462690000000003
aF0.074994000000000005
aF0.052682199999999998
aF0.044402999999999998
aF0.051672380000000004
aF0.037775799999999998
aF0.0643455
aF0.052148090000000001
aF0.056136199999999997
aF0.068863250000000001
aF0.046446630000000003
aF0.066756700000000002
aF0.057256000000000001
aF0.052873400000000001
aF0.059260369999999993
aF0.043804799999999998
aF0.049275640000000002
aF0.054561180000000001
aF0.041904999999999998
aF0.05529966
aF0.046936699999999998
aF0.055735699999999999
aF0.063071799999999997
aF0.046080200000000002
aF0.058179179999999997
aF0.048171469999999994
aF0.052126810000000003
aF0.051138999999999997
aF0.0612363
aF0.060725550000000003
aF0.052277120000000003
aF0.052270400000000002
aF0.067225499999999994
aF0.033446999999999998
aF0.052666709999999999
aF0.046086799999999997
aF0.056280799999999999
aF0.049311599999999997
aF0.066008159999999996
aF0.032043799999999997
aF0.0653812
aF0.050043339999999999
aF0.086687299999999995
aF0.043255399999999999
aF0.038410399999999997
aF0.0525078
aF0.050052300000000001
aF0.092322200000000007
aF0.055916210000000001
aF0.070858100000000007
aF0.052672099999999999
aF0.076235999999999998
aF0.061038700000000001
aF0.054668219999999997
aF0.070046999999999998
aF0.052102799999999998
aF0.057693660000000001
aF0.057812500000000003
aF0.056493799999999997
aF0.055426900000000001
aF0.066655419999999993
aF0.061541899999999997
aF0.069767800000000005
aF0.054402600000000002
aF0.0478132
aF0.054512060000000001
aF0.054727290000000005
aF0.066720699999999994
aF0.074220159999999993
aF0.057849100000000001
aF0.067772600000000002
aF0.063106999999999996
aF0.047602600000000002
aF0.063361000000000001
aF0.05103046
aF0.047408699999999998
aF0.058007910000000003
aF0.058494599999999994
aF0.064543199999999995
aF0.057242729999999999
aF0.068083549999999993
aF0.0427395
aF0.050190600000000002
aF0.060608200000000001
aF0.054935699999999997
aF0.054850500000000003
aF0.072778499999999996
aF0.044897699999999999
aF0.054864700000000002
aF0.053185739999999995
aF0.042517600000000003
aF0.036026200000000001
aF0.049901069999999999
aF0.059383409999999998
aF0.086232400000000001
aF0.0676596
aF0.059438000000000005
aF0.058049900000000001
aF0.064947299999999999
aF0.057825299999999996
aF0.0312126
aF0.049920390000000002
aF0.041692800000000002
aF0.058339600000000005
aF0.057104599999999998
aF0.044522699999999998
aF0.069643800000000006
aF0.059677299999999996
aF0.081513599999999992
aF0.068221100000000007
aF0.091519899999999987
aF0.054718099999999999
aF0.068677100000000005
aF0.049299599999999999
aF0.0453157
aF0.038655299999999997
aF0.050147560000000001
aF0.045476200000000001
aF0.055307900000000007
aF0.073193300000000003
aF0.060979400000000003
aF0.055015990000000001
aF0.060364470000000003
aF0.070131100000000002
aF0.074324000000000001
aF0.062733770000000008
aF0.080151600000000003
aF0.057253200000000004
aF0.064375600000000005
aF0.053853600000000001
aF0.0610956
aF0.076614799999999997
aF0.048941600000000002
aF0.0538953
aF0.055026800000000001
aF0.053025099999999999
aF0.047225700000000002
aF0.067484240000000001
aF0.050730699999999997
aF0.045623799999999999
aF0.046986630000000001
aF0.061993600000000003
aF0.05619474
aF0.046948700000000003
aF0.057123089999999994
aF0.046081700000000003
aF0.047449999999999999
aF0.044609160000000002
aF0.0567333
aF0.040168700000000002
aF0.050005939999999999
aF0.049649199999999998
aF0.056813900000000001
aF0.038812800000000001
aF0.067543500000000006
aF0.063346109999999997
aF0.057681700000000002
aF0.057371740000000004
aF0.049241100000000003
aF0.051671399999999999
aF0.055508210000000002
aF0.052283830000000003
aF0.043478200000000002
aF0.046239799999999998
aF0.073252899999999996
aF0.093456000000000011
aF0.069556919999999994
aF0.049015900000000001
aF0.075410400000000002
aF0.056407699999999998
aF0.0496937
aF0.046646440000000004
aF0.04778288
aF0.047472100000000003
aF0.047062399999999997
aF0.062141099999999998
aF0.068353850000000008
aF0.051376499999999999
aF0.058635760000000002
aF0.05365764
aF0.065267800000000001
aF0.051800100000000002
aF0.060321520000000003
aF0.052878990000000001
aF0.058704300000000001
aF0.080340110000000006
aF0.035619999999999999
aF0.046380999999999999
aF0.065789600000000004
aF0.043694999999999998
aF0.042079699999999998
aF0.061519600000000001
aF0.0362817
aF0.057463399999999998
aF0.050790439999999999
aF0.055634000000000003
aF0.044934200000000001
aF0.0555603
aF0.064165700000000006
aF0.068303600000000006
aF0.07160169999999999
aF0.050842900000000003
aF0.043994450000000004
aF0.046431990000000006
aF0.058507999999999998
aF0.047942499999999999
aF0.067519800000000005
aF0.056786400000000001
aF0.058188759999999999
aF0.068962999999999997
aF0.049607800000000001
aF0.060879900000000001
aF0.06909332
aF0.066975599999999996
aF0.047245079999999995
aF0.047061400000000003
aF0.060799599999999995
aF0.0389001
aF0.052256999999999998
aF0.081246700000000005
aF0.0406211
aF0.063351099999999994
aF0.055155830000000003
aF0.054868929999999996
aF0.051768700000000001
aF0.048427240000000003
aF0.074460999999999999
aF0.052882699999999998
aF0.059138540000000003
aF0.068103899999999995
aF0.078053399999999995
aF0.044282599999999998
aF0.061803399999999994
aF0.0536791
aF0.056705000000000005
aF0.0477017
aF0.038393860000000002
aF0.074396400000000001
aF0.0424036
aF0.047919700000000003
aF0.044435599999999999
aF0.056625000000000002
aF0.05878448
aF0.072559899999999997
aF0.046996400000000001
aF0.062200209999999999
aF0.057530739999999997
aF0.064902899999999999
aF0.056420599999999994
aF0.065456399999999998
aF0.073244240000000002
aF0.070477029999999996
aF0.075096099999999999
aF0.0689974
aF0.070184400000000008
aF0.041621999999999999
aF0.043896499999999998
aF0.070647600000000005
aF0.054441099999999999
aF0.055186699999999998
aF0.058331499999999994
aF0.0499683
aF0.053241239999999995
aF0.047156000000000003
aF0.064944600000000005
aF0.051245899999999997
aF0.049290199999999999
aF0.058597999999999997
aF0.036048299999999998
aF0.050434
aF0.05677811
aF0.0458422
aF0.0614923
aF0.056656000000000005
aF0.054842799999999997
aF0.048806299999999997
aF0.041946980000000002
aF0.077579049999999997
aF0.054639479999999997
aF0.088342100000000007
aF0.048420600000000001
aF0.050993529999999995
aF0.043449099999999997
aF0.073113899999999996
aF0.041713800000000002
aF0.059980800000000001
aF0.060202220000000001
aF0.06276793
aF0.053529100000000003
aF0.062042850000000004
aF0.038712700000000003
aF0.059089500000000003
aF0.055390430000000004
aF0.059790700000000002
aF0.058729570000000002
aF0.051147949999999998
aF0.057215299999999997
aF0.049891390000000001
aF0.064818500000000001
aF0.059099600000000002
aF0.046719799999999999
aF0.047396000000000001
aF0.055396899999999999
aF0.066401500000000002
aF0.067968299999999995
aF0.065606999999999999
aF0.0727854
aF0.058458799999999998
aF0.0415933
aF0.051532799999999997
aF0.050372300000000002
aF0.060806399999999997
aF0.038825249999999999
aF0.063744800000000004
aF0.050044199999999997
aF0.054360899999999997
aF0.051782820000000007
aF0.0668739
aF0.0421213
aF0.065754399999999991
aF0.043631650000000001
aF0.063120990000000002
aF0.048186079999999999
aF0.076388399999999995
aF0.087113030000000008
aF0.044883300000000001
aF0.0812055
aF0.057753859999999997
aF0.058947300000000001
aF0.053431600000000003
aF0.058702299999999999
aF0.0780888
aF0.0536424
aF0.060450299999999998
aF0.064928699999999992
aF0.05254789
aF0.070674500000000001
aF0.054239330000000002
aF0.053570430000000002
aF0.076729359999999996
aF0.053753599999999999
aF0.054562800000000002
aF0.051553500000000002
aF0.053142300000000003
aF0.057578799999999999
aF0.051483190000000005
aF0.062716900000000006
aF0.050203900000000003
aF0.071300500000000003
aF0.060097300000000006
aF0.057083700000000001
aF0.041998899999999999
aF0.062940399999999994
aF0.059958810000000001
aF0.058062299999999997
aF0.073494799999999999
aF0.0485195
aF0.06391703
aF0.070471900000000004
aF0.059697699999999999
aF0.057751300000000005
aF0.040622499999999999
aF0.068800500000000001
aF0.059185599999999998
aF0.057430340000000003
aF0.056725869999999998
aF0.048103100000000003
aF0.047550000000000002
aF0.075673400000000002
aF0.046233929999999999
aF0.059737530000000004
aF0.065023499999999998
aF0.046621999999999997
aF0.046177200000000002
aF0.051272999999999999
aF0.051280699999999999
aF0.057626200000000002
aF0.057809279999999998
aF0.053722199999999998
aF0.061212929999999999
aF0.055714989999999999
aF0.05776241
aF0.077109549999999999
aF0.088236099999999998
aF0.0536091
aF0.0601405
aF0.07505139999999999
aF0.060695299999999994
aF0.060849500000000001
aF0.054848899999999999
aF0.054492490000000005
aF0.058249599999999999
aF0.0839337
aF0.049634499999999998
aF0.06210247
aF0.040474799999999998
aF0.053074299999999998
aF0.037359700000000003
aF0.051784629999999998
aF0.059614569999999999
aF0.050069969999999998
aF0.043411969999999994
aF0.058781600000000003
aF0.063298300000000002
aF0.051588099999999998
aF0.077984250000000005
aF0.059379130000000002
aF0.049162499999999998
aF0.0490004
aF0.0468154
aF0.039730300000000003
aF0.052823120000000001
aF0.047896910000000001
aF0.059404200000000004
aF0.042378279999999997
aF0.066131300000000004
aF0.061720999999999998
aF0.056621100000000008
aF0.076057800000000009
aF0.062572299999999997
aF0.072321700000000003
aF0.055304569999999997
aF0.047415390000000002
aF0.052690599999999997
aF0.062656299999999998
aF0.061217830000000001
aF0.044496899999999999
aF0.044386429999999998
aF0.040901399999999997
aF0.029711499999999998
aF0.046730399999999998
aF0.051522199999999997
aF0.036777999999999998
aF0.067492099999999999
aF0.038533299999999999
aF0.05754828
aF0.05254967
aF0.050512899999999999
aF0.052485980000000002
aF0.082616670000000003
aF0.059736999999999998
aF0.041546699999999999
aF0.045858900000000001
aF0.052153360000000003
aF0.067279699999999998
aF0.0567625
aF0.055257899999999999
aF0.1008275
aF0.061144599999999993
aF0.059502899999999997
aF0.06036967
aF0.069490499999999997
aF0.060986800000000001
aF0.080946900000000002
aF0.0466221
aF0.058395200000000001
aF0.061599719999999997
aF0.049637889999999997
aF0.047781120000000003
aF0.056566999999999999
aF0.054764699999999999
aF0.052364099999999997
aF0.051045100000000003
aF0.054866900000000003
aF0.0487743
aF0.069782609999999995
aF0.038229399999999997
aF0.037733500000000003
aF0.070622299999999999
aF0.066979399999999994
aF0.048052499999999998
aF0.073940199999999998
aF0.05077653
aF0.056207130000000001
aF0.059668260000000001
aF0.050846490000000001
aF0.052675800000000002
aF0.056138500000000001
aF0.069910799999999995
aF0.042515900000000002
aF0.045714999999999999
aF0.073150300000000001
aF0.061674099999999996
aF0.047922259999999994
aF0.066156199999999998
aF0.054833199999999999
aF0.04418805
aF0.062549750000000001
aF0.046131399999999996
aF0.053939399999999998
aF0.051207900000000001
aF0.048606089999999998
aF0.045876509999999995
aF0.074098799999999992
aF0.057908910000000001
aF0.057315390000000001
aF0.067765690000000003
aF0.051313699999999997
aF0.0489471
aF0.078395180000000009
aF0.066504380000000002
aF0.083046400000000006
aF0.0576225
aF0.042432699999999997
aF0.053938260000000002
aF0.041591799999999998
aF0.079066399999999995
aF0.064562099999999997
aF0.056181550000000004
aF0.047126399999999999
aF0.0507272
aF0.0603572
aF0.0538492
aF0.057364100000000001
aF0.063669599999999993
aF0.043287300000000001
aF0.043164000000000001
aF0.050731519999999995
aF0.062910809999999998
aF0.045730100000000003
aF0.048329660000000003
aF0.069248530000000003
aF0.062313680000000003
aF0.05659347
aF0.052336210000000001
aF0.061917700000000006
aF0.071329000000000004
aF0.058898530000000004
aF0.050659000000000003
aF0.043996
aF0.056928399999999997
aF0.058795310000000003
aF0.063384799999999991
aF0.066441399999999998
aF0.064131170000000001
aF0.045507800000000001
aF0.066058099999999995
aF0.0601649
aF0.058804010000000004
aF0.06852395
aF0.065724600000000008
aF0.054034360000000003
aF0.053801849999999998
aF0.039987000000000002
aF0.060802969999999998
aF0.065685199999999999
aF0.047024200000000002
aF0.054705669999999998
aF0.0575682
aF0.04789376
aF0.0589919
aF0.043324399999999999
aF0.0511507
aF0.059355600000000001
aF0.045095990000000002
aF0.051619959999999999
aF0.049954199999999997
aF0.049739100000000001
aF0.063175300000000004
aF0.059861419999999999
aF0.053309299999999997
aF0.051994800000000001
aF0.080551009999999992
aF0.057736599999999999
aF0.0457937
aF0.053645899999999996
aF0.063406599999999994
aF0.054171499999999997
aF0.0429965
aF0.0597648
aF0.060589500000000004
aF0.059484470000000005
aF0.061334600000000003
aF0.065997399999999998
aF0.044699700000000002
aF0.056081100000000002
aF0.063531799999999999
aF0.044969299999999997
aF0.062890600000000005
aF0.0713366
aF0.055807799999999998
aF0.064952099999999999
aF0.061623999999999998
aF0.066419779999999998
aF0.072474499999999997
aF0.045049600000000002
aF0.044574200000000001
aF0.04824465
aF0.07247808
aF0.065258700000000003
aF0.076461899999999999
aF0.0513179
aF0.066748399999999999
aF0.05446082
aF0.055405200000000002
aF0.051138599999999999
aF0.055757600000000004
aF0.041575399999999998
aF0.074952899999999989
aF0.057235049999999996
aF0.072342900000000002
aF0.044358500000000002
aF0.055187800000000002
aF0.044475899999999999
aF0.061333700000000005
aF0.0461033
aF0.0589451
aF0.0680143
aF0.059788859999999999
aF0.0488841
aF0.047641130000000004
aF0.053043050000000001
aF0.056057099999999999
aF0.057362099999999999
aF0.058875799999999999
aF0.056100360000000002
aF0.067542400000000002
aF0.051396400000000002
aF0.068804600000000007
aF0.049293499999999997
aF0.055708100000000003
aF0.048529500000000003
aF0.075065899999999991
aF0.049643699999999999
aF0.05361486
aF0.061712999999999997
aF0.050805299999999998
aF0.060701999999999999
aF0.059826799999999999
aF0.045059500000000002
aF0.048849500000000004
aF0.054844700000000003
aF0.065816600000000003
aF0.058530700000000005
aF0.048208100000000004
aF0.0446036
aF0.061330800000000005
aF0.034840099999999999
aF0.056338199999999998
aF0.057244199999999995
aF0.069498900000000002
aF0.046901400000000003
aF0.050341299999999999
aF0.054434800000000005
aF0.067144200000000001
aF0.079977099999999995
aF0.053935400000000001
aF0.045837099999999999
aF0.062348800000000003
aF0.062095300000000006
aF0.062657000000000004
aF0.051127800000000001
aF0.049892790000000006
aF0.077705800000000005
aF0.058999940000000001
aF0.07121050000000001
aF0.047132800000000002
aF0.056560800000000001
aF0.054473809999999998
aF0.057943399999999999
aF0.029315999999999998
aF0.062056600000000003
aF0.05048536
aF0.076992300000000014
aF0.047260200000000002
aF0.071186899999999997
aF0.062104700000000006
aF0.053064500000000001
aF0.043443020000000006
aF0.052203199999999998
aF0.064396389999999998
aF0.070635500000000004
aF0.064795199999999997
aF0.046844109999999994
aF0.045037489999999999
aF0.055995730000000001
aF0.050181000000000003
aF0.057807900000000002
aF0.046265899999999999
aF0.061674699999999999
aF0.066568310000000006
aF0.054629999999999998
aF0.0460823
aF0.0646481
aF0.0444663
aF0.059758400000000003
aF0.050296199999999999
aF0.055974200000000002
aF0.055106000000000002
aF0.065451720000000005
aF0.050889400000000001
aF0.042533399999999999
aF0.057520719999999997
aF0.069145399999999996
aF0.040944399999999999
aF0.041062500000000002
aF0.087710399999999994
aF0.043321699999999998
aF0.075346899999999994
aF0.053620800000000003
aF0.058617000000000002
aF0.053191299999999997
aF0.0462814
aF0.052016610000000005
aF0.039390100000000004
aF0.058904999999999999
aF0.045424199999999998
aF0.043520179999999999
aF0.063675300000000004
aF0.053796099999999999
aF0.0665018
aF0.077584
aF0.069352999999999998
aF0.062604899999999991
aF0.051664099999999998
aF0.068830100000000005
aF0.052615759999999998
aF0.061500100000000002
aF0.047038400000000001
aF0.049179899999999999
aF0.070439200000000007
aF0.047359999999999999
aF0.058444799999999998
aF0.054794299999999997
aF0.064899200000000004
aF0.064711000000000005
aF0.044139900000000003
aF0.048330900000000003
aF0.051949700000000001
aF0.050189190000000002
aF0.0554739
aF0.060240299999999997
aF0.05850147
aF0.061205300000000004
aF0.052433819999999999
aF0.072776560000000004
aF0.058964200000000001
aF0.051063149999999995
aF0.063603779999999999
aF0.044394099999999999
aF0.05277569
aF0.057938120000000003
aF0.059011920000000002
aF0.050928599999999997
aF0.058005100000000004
aF0.048997100000000002
aF0.043882900000000002
aF0.062002700000000001
aF0.065250199999999994
aF0.056489600000000001
aF0.04955271
aF0.073936100000000005
aF0.064914310000000003
aF0.062881800000000002
aF0.050880000000000002
aF0.045570929999999996
aF0.082841800000000007
aF0.064888500000000002
aF0.064460480000000001
aF0.064097599999999991
aF0.039733699999999997
aF0.063372150000000002
aF0.060817799999999998
aF0.071940100000000007
aF0.053740499999999997
aF0.068495199999999992
aF0.050854700000000003
aF0.052878300000000003
aF0.043235799999999998
aF0.070902989999999999
aF0.043293900000000003
aF0.082752300000000001
aF0.075790899999999994
aF0.045428900000000001
aF0.0573474
aF0.056342919999999998
aF0.0550082
aF0.052702300000000007
aF0.085687700000000006
aF0.071698100000000001
aF0.0481375
aF0.064472000000000002
aF0.0392483
aF0.058850239999999998
aF0.075888999999999998
aF0.067481399999999997
aF0.033872800000000002
aF0.055668299999999997
aF0.05071937
aF0.061555800000000001
aF0.064565079999999997
aF0.047785599999999998
aF0.046043500000000001
aF0.062824999999999992
aF0.058738180000000001
aF0.041784099999999998
aF0.051746199999999999
aF0.070813429999999997
aF0.088956800000000003
aF0.0768041
aF0.060898399999999998
aF0.062895560000000003
aF0.052056499999999999
aa(lp10
a(lp11
aa(lp12
(S'4'
S'3'
S'1'
tp13
a(lp14
F0.060913020000000005
aF0.057603000000000001
aF0.0463895
aF0.046702199999999999
aF0.049804500000000002
aF0.046129200000000002
aF0.049065499999999998
aF0.046165499999999998
aF0.087519900000000012
aF0.035610000000000003
aF0.048873899999999998
aF0.080833600000000005
aF0.055431599999999998
aF0.050924700000000003
aF0.066680900000000001
aF0.071536500000000003
aF0.043681600000000001
aF0.052299699999999998
aF0.037588200000000002
aF0.06460479999999999
aF0.042228000000000002
aF0.061073500000000003
aF0.045162500000000001
aF0.065368499999999996
aF0.068020499999999998
aF0.071584200000000001
aF0.042893199999999999
aF0.053598600000000003
aF0.044021190000000002
aF0.064793299999999998
aF0.059396299999999999
aF0.033503600000000001
aF0.048057799999999998
aF0.049228800000000003
aF0.048816600000000002
aF0.040324600000000002
aF0.044335069999999997
aF0.0504743
aF0.058233500000000001
aF0.070412100000000005
aF0.058560679999999997
aF0.054288099999999999
aF0.0555883
aF0.035518000000000001
aF0.039196599999999998
aF0.051548099999999999
aF0.060506499999999998
aF0.049099900000000002
aF0.039832399999999997
aF0.056342499999999997
aF0.062347399999999997
aF0.050501569999999996
aF0.0492176
aF0.036609900000000001
aF0.07059464
aF0.054747900000000002
aF0.036408999999999997
aF0.09268499999999999
aF0.049945409999999996
aF0.043740099999999997
aF0.046620700000000001
aF0.045790400000000002
aF0.052895699999999997
aF0.060675899999999998
aF0.041532199999999998
aF0.053702800000000002
aF0.038044099999999997
aF0.045385000000000002
aF0.048675000000000003
aF0.079096799999999995
aF0.0543048
aF0.039141299999999997
aF0.070369500000000001
aF0.066239999999999993
aF0.065771499999999997
aF0.069006899999999996
aF0.053143099999999999
aF0.081209900000000002
aF0.047601999999999998
aF0.062099729999999999
aF0.042549700000000003
aF0.049550230000000001
aF0.059316999999999995
aF0.075487799999999994
aF0.045104400000000003
aF0.05038227
aF0.0483337
aF0.073961600000000002
aF0.047748440000000003
aF0.053438699999999999
aF0.071349999999999997
aF0.041872600000000003
aF0.041073900000000003
aF0.0457703
aF0.071489899999999995
aF0.062567999999999999
aF0.051386000000000001
aF0.047247499999999998
aF0.043305400000000001
aF0.053460199999999999
aF0.042311399999999999
aF0.050098799999999999
aF0.047222800000000002
aF0.0412176
aF0.042416500000000003
aF0.067494499999999999
aF0.049636199999999998
aF0.059068210000000003
aF0.045771300000000001
aF0.042891699999999998
aF0.043008900000000003
aF0.054650400000000002
aF0.071496299999999999
aF0.066696800000000001
aF0.061442900000000002
aF0.074790599999999999
aF0.087375099999999997
aF0.045309200000000001
aF0.043819400000000001
aF0.050207099999999998
aF0.052248000000000003
aF0.046214100000000001
aF0.058217140000000001
aF0.062675399999999992
aF0.063501499999999989
aF0.054969299999999999
aF0.056963260000000002
aF0.072030839999999999
aF0.051536699999999998
aF0.052437299999999999
aF0.055948999999999999
aF0.046206299999999999
aF0.044317799999999997
aF0.0658744
aF0.050304500000000002
aF0.055431000000000001
aF0.045817400000000001
aF0.063784599999999997
aF0.040979000000000002
aF0.056384940000000001
aF0.054853799999999994
aF0.045420299999999997
aF0.041985799999999997
aF0.0564319
aF0.048872100000000002
aF0.046639199999999999
aF0.044387000000000003
aF0.053249320000000003
aF0.072389399999999993
aF0.068984900000000002
aF0.069690200000000008
aF0.059251199999999997
aF0.052136660000000001
aF0.054319199999999998
aF0.049437000000000002
aF0.058335100000000001
aF0.052694199999999997
aF0.065877500000000005
aF0.053714900000000003
aF0.044238399999999997
aF0.081081
aF0.040960400000000001
aF0.0446796
aF0.045241400000000001
aF0.0543709
aF0.051457099999999999
aF0.056229399999999999
aF0.043631999999999997
aF0.044372700000000001
aF0.045732399999999999
aF0.050282010000000002
aF0.047483999999999998
aF0.064013100000000003
aF0.053934900000000001
aF0.048715099999999997
aF0.064127999999999991
aF0.057028300000000004
aF0.088841900000000001
aF0.08882219999999999
aF0.082017000000000007
aF0.056577999999999996
aF0.0503761
aF0.079145199999999999
aF0.046160399999999997
aF0.047103399999999997
aF0.042888999999999997
aF0.045570699999999999
aF0.033033199999999999
aF0.059874700000000003
aF0.057265099999999999
aF0.042967900000000003
aF0.058982399999999997
aF0.060139400000000003
aF0.042885399999999997
aF0.073943200000000001
aF0.047997400000000003
aF0.041047920000000002
aF0.038781900000000001
aF0.067104700000000003
aF0.052682199999999998
aF0.044402999999999998
aF0.043893000000000001
aF0.038835379999999996
aF0.039860100000000002
aF0.045207999999999998
aF0.0699515
aF0.061820300000000002
aF0.0430759
aF0.084451899999999996
aF0.039479100000000003
aF0.046201800000000001
aF0.050783799999999997
aF0.0711759
aF0.045594700000000002
aF0.0515732
aF0.058502100000000001
aF0.053099199999999999
aF0.068267999999999995
aF0.068307300000000001
aF0.035518599999999997
aF0.046080200000000002
aF0.053057
aF0.040722599999999998
aF0.044394400000000001
aF0.063620499999999996
aF0.046405000000000002
aF0.054316200000000002
aF0.050146000000000003
aF0.069259500000000002
aF0.0383328
aF0.054418099999999997
aF0.046323900000000001
aF0.04705227
aF0.037489099999999997
aF0.071392499999999998
aF0.058159299999999997
aF0.047232099999999999
aF0.043173099999999999
aF0.047692999999999999
aF0.0671934
aF0.070048699999999992
aF0.054636900000000002
aF0.059823769999999998
aF0.071101700000000004
aF0.072328000000000003
aF0.049463600000000003
aF0.036552500000000002
aF0.052672099999999999
aF0.054584300000000002
aF0.0457797
aF0.049471899999999999
aF0.042901099999999998
aF0.054880359999999996
aF0.054226299999999998
aF0.0400328
aF0.060129719999999998
aF0.066826700000000003
aF0.0573889
aF0.050636399999999998
aF0.049461600000000001
aF0.042685000000000001
aF0.072789900000000005
aF0.0466296
aF0.047314500000000002
aF0.079956299999999994
aF0.071979199999999993
aF0.043111200000000002
aF0.053521199999999998
aF0.06797708999999999
aF0.066500299999999998
aF0.0480849
aF0.047861899999999999
aF0.047408699999999998
aF0.054446300000000003
aF0.046001399999999998
aF0.042483
aF0.055026499999999999
aF0.062760399999999994
aF0.063078899999999993
aF0.064160700000000001
aF0.046724700000000001
aF0.060120839999999995
aF0.06131781
aF0.055407100000000001
aF0.049584759999999999
aF0.054864700000000002
aF0.046687399999999997
aF0.0751391
aF0.048853100000000003
aF0.047657100000000001
aF0.057183699999999997
aF0.070002300000000003
aF0.0676596
aF0.041835700000000003
aF0.058049900000000001
aF0.052360499999999997
aF0.0353896
aF0.061762600000000001
aF0.046607700000000002
aF0.041692890000000003
aF0.045518000000000003
aF0.075684399999999999
aF0.031816400000000002
aF0.079974500000000004
aF0.045025799999999998
aF0.066576399999999994
aF0.056692300000000001
aF0.054940999999999997
aF0.054718179999999998
aF0.0553559
aF0.068549200000000005
aF0.0453157
aF0.0548627
aF0.049993700000000002
aF0.055309690000000002
aF0.037498200000000002
aF0.060013200000000003
aF0.072268800000000008
aF0.051775000000000002
aF0.0517327
aF0.055651899999999997
aF0.061992499999999999
aF0.054671900000000002
aF0.068324099999999999
aF0.0479003
aF0.050526300000000003
aF0.076890600000000003
aF0.077250200000000005
aF0.0541378
aF0.046358900000000001
aF0.067107399999999998
aF0.0561901
aF0.053025099999999999
aF0.067027799999999998
aF0.059506499999999997
aF0.071443800000000002
aF0.050145889999999999
aF0.045508
aF0.07603370000000001
aF0.051839700000000002
aF0.05202155
aF0.050141699999999997
aF0.046081700000000003
aF0.032856799999999999
aF0.042301100000000001
aF0.070657999999999999
aF0.040169280000000002
aF0.0453555
aF0.076551800000000003
aF0.069583800000000001
aF0.059837100000000004
aF0.044109599999999999
aF0.058956799999999997
aF0.057681700000000002
aF0.048057900000000001
aF0.05330932
aF0.060458129999999999
aF0.0476672
aF0.046594400000000001
aF0.0713646
aF0.066807599999999995
aF0.046416300000000001
aF0.037018500000000003
aF0.063897099999999998
aF0.049015900000000001
aF0.049960200000000003
aF0.0432238
aF0.0496937
aF0.042863600000000002
aF0.043556900000000003
aF0.059300000000000005
aF0.091670699999999994
aF0.078023599999999999
aF0.059849600000000003
aF0.075482999999999995
aF0.0494273
aF0.0497359
aF0.0470871
aF0.060750780000000004
aF0.052649500000000002
aF0.045440800000000003
aF0.0382114
aF0.072087300000000007
aF0.081052100000000002
aF0.060308599999999997
aF0.044299100000000001
aF0.043695689999999995
aF0.059386899999999992
aF0.0417813
aF0.065102500000000008
aF0.047278199999999999
aF0.043087399999999998
aF0.066582500000000003
aF0.031927200000000003
aF0.0416884
aF0.079960300000000012
aF0.1037322
aF0.059389499999999998
aF0.063652600000000004
aF0.038488700000000001
aF0.041614900000000003
aF0.046613099999999998
aF0.0806066
aF0.056954900000000003
aF0.074675999999999992
aF0.049401199999999999
aF0.056712600000000002
aF0.0460309
aF0.072042899999999993
aF0.059228299999999998
aF0.066975599999999996
aF0.038840699999999999
aF0.042691100000000003
aF0.051964999999999997
aF0.060039099999999998
aF0.052256999999999998
aF0.064723900000000001
aF0.0565709
aF0.0517303
aF0.046062100000000002
aF0.050044199999999997
aF0.069429299999999999
aF0.043910200000000003
aF0.063552200000000003
aF0.070757
aF0.059137200000000001
aF0.078302099999999999
aF0.0726662
aF0.056883999999999997
aF0.046139399999999997
aF0.067787299999999995
aF0.045576600000000002
aF0.0477017
aF0.038010000000000002
aF0.061375199999999998
aF0.057978799999999997
aF0.070076899999999998
aF0.060355199999999998
aF0.082073599999999997
aF0.055843299999999998
aF0.059020200000000002
aF0.053353299999999999
aF0.057836800000000001
aF0.049499799999999997
aF0.042098299999999998
aF0.042865599999999997
aF0.045530800000000003
aF0.064272999999999997
aF0.069261699999999995
aF0.050091900000000002
aF0.060244199999999998
aF0.0601234
aF0.041621999999999999
aF0.061061199999999996
aF0.054306300000000002
aF0.087925599999999993
aF0.056537560000000001
aF0.044322599999999997
aF0.0944218
aF0.044338099999999998
aF0.048966380000000004
aF0.071276370000000006
aF0.069364800000000004
aF0.053162179999999996
aF0.043244699999999997
aF0.055593699999999996
aF0.068724199999999999
aF0.048835299999999998
aF0.051741250000000003
aF0.078557399999999999
aF0.050436500000000002
aF0.047673500000000001
aF0.056621809999999995
aF0.037773899999999999
aF0.074246800000000002
aF0.048191499999999998
aF0.068134100000000003
aF0.068387100000000006
aF0.044926599999999997
aF0.049979419999999997
aF0.060890399999999997
aF0.04383256
aF0.046532999999999998
aF0.055879600000000001
aF0.057097000000000002
aF0.070191600000000007
aF0.056719100000000001
aF0.083537899999999998
aF0.048339500000000001
aF0.050505000000000001
aF0.032225299999999998
aF0.051355400000000002
aF0.050113699999999997
aF0.058694839999999998
aF0.047756899999999998
aF0.042990500000000001
aF0.075274199999999999
aF0.046719799999999999
aF0.047396580000000001
aF0.055396899999999999
aF0.053758899999999998
aF0.054778899999999998
aF0.082235699999999995
aF0.0522175
aF0.075980999999999993
aF0.055388800000000002
aF0.063873899999999997
aF0.063269900000000004
aF0.060806399999999997
aF0.036367400000000001
aF0.043435000000000001
aF0.081720899999999999
aF0.047261999999999998
aF0.043217400000000003
aF0.049794600000000001
aF0.050608090000000001
aF0.046050899999999999
aF0.043040700000000001
aF0.057905999999999999
aF0.040726499999999999
aF0.045936699999999997
aF0.081824900000000006
aF0.059214799999999998
aF0.064629900000000004
aF0.049357699999999997
aF0.0430636
aF0.053431600000000003
aF0.047761600000000001
aF0.082506899999999994
aF0.045159100000000001
aF0.075455499999999995
aF0.044324299999999997
aF0.048624000000000001
aF0.060114099999999997
aF0.044915900000000002
aF0.0489244
aF0.066946400000000003
aF0.064027299999999995
aF0.054562800000000002
aF0.0501973
aF0.077476799999999998
aF0.041131899999999999
aF0.042812500000000003
aF0.031951800000000002
aF0.071665100000000009
aF0.053707499999999998
aF0.048124100000000003
aF0.049925499999999998
aF0.041998899999999999
aF0.048095699999999998
aF0.055263100000000002
aF0.047890099999999998
aF0.047399700000000003
aF0.038177099999999999
aF0.054625199999999999
aF0.054279099999999997
aF0.047788600000000001
aF0.041111000000000002
aF0.040622499999999999
aF0.0531323
aF0.0871918
aF0.049473000000000003
aF0.048584599999999999
aF0.064368000000000009
aF0.070869299999999996
aF0.053064100000000003
aF0.040761199999999997
aF0.053495500000000001
aF0.051174799999999999
aF0.061639299999999994
aF0.078892000000000004
aF0.057960899999999996
aF0.075056299999999992
aF0.053378500000000002
aF0.057809199999999998
aF0.0751584
aF0.0531815
aF0.050072899999999997
aF0.049535799999999998
aF0.068438799999999994
aF0.0763794
aF0.0536091
aF0.044445100000000001
aF0.061751599999999997
aF0.045039299999999997
aF0.043565
aF0.072587199999999991
aF0.050619400000000002
aF0.069011400000000001
aF0.038703799999999997
aF0.069666399999999989
aF0.055834799999999997
aF0.040474799999999998
aF0.079928200000000005
aF0.082332800000000012
aF0.049352
aF0.050120499999999998
aF0.0458065
aF0.039982999999999998
aF0.0775145
aF0.090794700000000006
aF0.051588099999999998
aF0.0702821
aF0.055085599999999998
aF0.059479499999999998
aF0.056417509999999997
aF0.054176920000000003
aF0.039730300000000003
aF0.043876800000000001
aF0.0451159
aF0.045359200000000002
aF0.0360399
aF0.0486119
aF0.047378299999999998
aF0.031426500000000003
aF0.064766000000000004
aF0.042552699999999999
aF0.058872899999999999
aF0.046956600000000001
aF0.040413200000000003
aF0.077480300000000002
aF0.073954599999999995
aF0.059419
aF0.064351999999999993
aF0.038693699999999998
aF0.069540299999999999
aF0.029711499999999998
aF0.069647700000000007
aF0.033263599999999997
aF0.043120449999999998
aF0.045582200000000003
aF0.061257800000000001
aF0.049178100000000002
aF0.050576999999999997
aF0.050626909999999997
aF0.044208499999999998
aF0.075327500000000006
aF0.055254400000000002
aF0.068574999999999997
aF0.065589000000000008
aF0.042700000000000002
aF0.0346734
aF0.081639500000000004
aF0.051828399999999997
aF0.078864299999999998
aF0.043474199999999998
aF0.036690300000000002
aF0.054219999999999997
aF0.045080799999999997
aF0.042684800000000002
aF0.073235099999999997
aF0.062609100000000001
aF0.046382800000000002
aF0.058778799999999999
aF0.0467845
aF0.044103200000000002
aF0.067942900000000001
aF0.039726299999999999
aF0.074514899999999995
aF0.069820800000000002
aF0.041588100000000003
aF0.082032300000000002
aF0.060496899999999999
aF0.038229399999999997
aF0.063594499999999998
aF0.084174200000000005
aF0.0454665
aF0.065948999999999994
aF0.098357399999999998
aF0.0484611
aF0.0472285
aF0.052305400000000002
aF0.041833700000000001
aF0.071913599999999994
aF0.056138500000000001
aF0.099729799999999993
aF0.061515399999999998
aF0.066005399999999992
aF0.056105599999999999
aF0.043538399999999998
aF0.043929799999999998
aF0.078859499999999999
aF0.076325499999999991
aF0.041720500000000001
aF0.058791000000000003
aF0.035328199999999997
aF0.043112699999999997
aF0.041821499999999998
aF0.044749999999999998
aF0.042821199999999997
aF0.0272149
aF0.051104400000000001
aF0.051237100000000001
aF0.058083900000000001
aF0.039985899999999998
aF0.065434800000000001
aF0.069791000000000006
aF0.059795300000000003
aF0.10086610000000001
aF0.044950999999999998
aF0.077450699999999997
aF0.050237900000000002
aF0.041591799999999998
aF0.055326699999999999
aF0.081231299999999992
aF0.053015100000000003
aF0.047126399999999999
aF0.078201699999999999
aF0.047210000000000002
aF0.060309099999999997
aF0.059187179999999999
aF0.0504859
aF0.066799499999999998
aF0.043164000000000001
aF0.040870499999999997
aF0.053392599999999998
aF0.069514900000000004
aF0.041008200000000002
aF0.060902600000000001
aF0.058389200000000002
aF0.050893300000000002
aF0.0489886
aF0.049438000000000003
aF0.042925499999999998
aF0.050461300000000001
aF0.084792699999999999
aF0.082045399999999991
aF0.043688499999999998
aF0.053448700000000002
aF0.049571299999999999
aF0.049015999999999997
aF0.054160600000000003
aF0.045507800000000001
aF0.052518799999999997
aF0.083828299999999994
aF0.051265100000000001
aF0.061424899999999998
aF0.051982100000000003
aF0.0499905
aF0.051252499999999999
aF0.044486030000000003
aF0.0536569
aF0.085630700000000004
aF0.058945300000000006
aF0.045162399999999998
aF0.0458065
aF0.044338700000000002
aF0.0589919
aF0.062691399999999994
aF0.040832399999999998
aF0.041459700000000002
aF0.041518100000000002
aF0.0463217
aF0.05663907
aF0.05377316
aF0.075144900000000001
aF0.053703300000000002
aF0.070915099999999995
aF0.051994800000000001
aF0.073704699999999998
aF0.047430100000000003
aF0.074721200000000002
aF0.0405837
aF0.085720999999999992
aF0.056104289999999994
aF0.0429965
aF0.060210550000000002
aF0.041573100000000002
aF0.055071000000000002
aF0.047559700000000003
aF0.049681000000000003
aF0.0431659
aF0.090557700000000005
aF0.0464257
aF0.060759299999999995
aF0.064382770000000006
aF0.054893600000000001
aF0.056183719999999999
aF0.046997999999999998
aF0.043954
aF0.056876999999999997
aF0.049137100000000003
aF0.0329319
aF0.062287099999999998
aF0.0437513
aF0.065843200000000005
aF0.047904599999999999
aF0.065139000000000002
aF0.040843699999999997
aF0.040081100000000001
aF0.050335400000000002
aF0.045765199999999999
aF0.070339600000000002
aF0.041053100000000002
aF0.041577699999999995
aF0.043131999999999997
aF0.052526499999999997
aF0.053214400000000002
aF0.040356700000000002
aF0.048905700000000003
aF0.040424599999999998
aF0.040531200000000003
aF0.04956381
aF0.0459397
aF0.056098299999999997
aF0.052050800000000001
aF0.060865000000000002
aF0.040569300000000003
aF0.049362200000000002
aF0.038026299999999999
aF0.077190399999999992
aF0.0483554
aF0.054344099999999999
aF0.046139699999999999
aF0.064457700000000007
aF0.055302700000000003
aF0.049293499999999997
aF0.037378500000000002
aF0.065242800000000004
aF0.057015999999999997
aF0.049643699999999999
aF0.047577800000000003
aF0.045704099999999998
aF0.072061600000000003
aF0.045499299999999999
aF0.039740499999999998
aF0.069802100000000006
aF0.033551600000000001
aF0.054844700000000003
aF0.051208999999999998
aF0.054128000000000003
aF0.047300300000000003
aF0.062481999999999996
aF0.050286200000000003
aF0.076283900000000002
aF0.043852099999999998
aF0.049761199999999998
aF0.041193
aF0.077038800000000004
aF0.044608799999999997
aF0.044045300000000003
aF0.039874
aF0.0603051
aF0.05442429
aF0.059738600000000003
aF0.062682219999999997
aF0.047119800000000003
aF0.063364009999999998
aF0.0523613
aF0.043816300000000002
aF0.055115400000000002
aF0.051129500000000001
aF0.057633700000000003
aF0.072290199999999999
aF0.043336100000000002
aF0.0522742
aF0.043536999999999999
aF0.070379999999999998
aF0.0517011
aF0.043174499999999998
aF0.064643500000000007
aF0.061653700000000006
aF0.057666700000000001
aF0.049564700000000003
aF0.072173700000000007
aF0.040992800000000003
aF0.052203199999999998
aF0.060437200000000003
aF0.058987100000000001
aF0.053681699999999999
aF0.037043399999999997
aF0.0380297
aF0.053712799999999998
aF0.0680756
aF0.043824200000000001
aF0.063457
aF0.077347200000000005
aF0.0591782
aF0.054629999999999998
aF0.056945099999999998
aF0.0458463
aF0.057439900000000002
aF0.075249300000000005
aF0.052167980000000003
aF0.055974200000000002
aF0.075035299999999999
aF0.062063199999999999
aF0.050889400000000001
aF0.060589499999999998
aF0.055641799999999998
aF0.039611599999999997
aF0.046650819999999996
aF0.078657900000000003
aF0.061936999999999999
aF0.043321779999999997
aF0.062987000000000001
aF0.0861624
aF0.060763320000000003
aF0.076198500000000002
aF0.066104800000000005
aF0.046113000000000001
aF0.038011000000000003
aF0.043020999999999997
aF0.068993600000000002
aF0.0399295
aF0.0525447
aF0.041550400000000001
aF0.084177299999999997
aF0.066241800000000003
aF0.051255000000000002
aF0.052245899999999998
aF0.067061599999999999
aF0.049952999999999997
aF0.043590799999999999
aF0.044680400000000002
aF0.073715600000000006
aF0.075967999999999994
aF0.057087600000000002
aF0.066980999999999999
aF0.082652100000000006
aF0.0681142
aF0.023161600000000001
aF0.064796030000000004
aF0.059150000000000001
aF0.072330000000000005
aF0.065579499999999999
aF0.046213400000000002
aF0.066987099999999994
aF0.042531800000000002
aF0.050092900000000003
aF0.051155600000000002
aF0.048842999999999998
aF0.063670500000000005
aF0.071347999999999995
aF0.046849099999999998
aF0.0537247
aF0.056585499999999997
aF0.049383000000000003
aF0.049786400000000001
aF0.051324700000000001
aF0.059493079999999997
aF0.046578700000000001
aF0.048997100000000002
aF0.06845190000000001
aF0.062002700000000001
aF0.082760299999999995
aF0.042755500000000002
aF0.047683900000000001
aF0.094552700000000003
aF0.060569100000000001
aF0.062881800000000002
aF0.080209500000000003
aF0.040751999999999997
aF0.071650900000000003
aF0.04854
aF0.060059099999999997
aF0.049698399999999997
aF0.060689699999999999
aF0.059191399999999998
aF0.083429699999999996
aF0.053356199999999999
aF0.065714700000000001
aF0.057773199999999997
aF0.076746400000000006
aF0.0417183
aF0.043235799999999998
aF0.062816300000000005
aF0.066600500000000007
aF0.051508100000000001
aF0.055842799999999998
aF0.051314949999999998
aF0.084883299999999995
aF0.052271699999999997
aF0.074256600000000006
aF0.036950200000000002
aF0.074578699999999998
aF0.044887700000000003
aF0.058900800000000003
aF0.054344299999999998
aF0.055946099999999999
aF0.050731999999999999
aF0.059582299999999998
aF0.048684400000000003
aF0.033872800000000002
aF0.076680799999999993
aF0.046251899999999999
aF0.076192300000000004
aF0.056032899999999997
aF0.060302700000000001
aF0.056152400000000005
aF0.051949799999999997
aF0.048982400000000002
aF0.033137199999999999
aF0.051746199999999999
aF0.060834600000000003
aF0.055657499999999999
aF0.046308700000000001
aF0.0483612
aF0.059651900000000001
aF0.075158799999999998
aa(lp15
a(lp16
aa(lp17
(S'2'
S'3'
S'1'
tp18
a(lp19
F0.00236382
aF0.050283300000000003
aF0.021874500000000002
aF0.017122200000000001
aF0.021405199999999999
aF0.011635
aF0.016112600000000001
aF0.027793600000000002
aF0.0013276900000000001
aF0.0172117
aF0.00052877000000000002
aF0.012659699999999999
aF0.0092147800000000005
aF7.0000000000000005e-08
aF0.0085871400000000001
aF0.017054699999999999
aF0.0082460099999999998
aF0.030003999999999999
aF0.029440600000000001
aF0.025632700000000001
aF0.0127257
aF0.0298064
aF0.0067737300000000004
aF0.0097957300000000008
aF0.0137567
aF0.025259299999999998
aF0.00095516999999999998
aF0.0257842
aF0.00019744000000000001
aF0.0198803
aF0.017096699999999999
aF0.0056347100000000002
aF0.028796200000000001
aF0.010877400000000001
aF0.024876599999999999
aF0.036457499999999997
aF0.00095914000000000004
aF0.019780699999999998
aF0.016743399999999999
aF0.0042987600000000004
aF0.0015619399999999999
aF0.012360599999999999
aF0.0080961399999999999
aF0.017848699999999999
aF0.00296562
aF0.011842999999999999
aF0.016679800000000002
aF0.011473499999999999
aF0.0065607599999999997
aF0.019943599999999999
aF0.0328134
aF0.0033221100000000001
aF0.0143987
aF0.0106944
aF0.016574800000000001
aF0.021823800000000001
aF0.044004399999999999
aF0.032443
aF0.012016199999999999
aF0.031742899999999998
aF0.014323199999999999
aF0.025023900000000002
aF0.0012619199999999999
aF0.0010595800000000001
aF0.013815300000000001
aF0.017695200000000001
aF0.027371099999999999
aF0.0165971
aF0.021331300000000001
aF0.0125716
aF0.0124815
aF0.0169891
aF0.020971099999999999
aF0.00096546999999999996
aF0.022080900000000001
aF0.0151883
aF0.026793299999999999
aF0.016226500000000001
aF0.0073159699999999998
aF0.021049399999999999
aF0.0027775600000000001
aF0.00363592
aF0.0113998
aF0.024976700000000001
aF0.0132356
aF0.0048700899999999997
aF0.0188977
aF0.020339400000000001
aF0.013970099999999999
aF0.0051851400000000004
aF0.0064673100000000004
aF0.0046870599999999998
aF0.032621499999999998
aF0.0128269
aF0.030550000000000001
aF8.9999999999999999e-08
aF0.0185798
aF0.0103307
aF8.0000000000000002e-08
aF0.019249599999999999
aF0.0162074
aF0.0098334900000000003
aF0.0112894
aF0.023036999999999998
aF0.016154600000000002
aF0.013212099999999999
aF0.0011632999999999999
aF0.0198021
aF0.020713100000000002
aF0.0045220900000000003
aF0.0140401
aF0.0050728500000000003
aF0.0139247
aF5.7999999999999995e-07
aF0.026902599999999999
aF0.012769900000000001
aF0.021024299999999999
aF0.00406822
aF0.0087867299999999995
aF0.027886399999999999
aF0.020567800000000001
aF0.011827900000000001
aF0.044608299999999997
aF0.015882500000000001
aF0.024106499999999999
aF0.0089506800000000008
aF0.045432100000000003
aF0.0139276
aF6.8999999999999996e-07
aF0.017307199999999998
aF0.028820800000000001
aF0.0109485
aF0.015794599999999999
aF0.035428599999999998
aF0.0128097
aF0.032664100000000001
aF0.017889599999999999
aF0.011162999999999999
aF0.021139000000000002
aF0.0159498
aF0.017660599999999999
aF0.017874299999999999
aF0.010198199999999999
aF0.0126014
aF0.0141082
aF0.015575200000000001
aF0.022157199999999998
aF0.015919599999999999
aF0.025448599999999998
aF0.0063569000000000004
aF0.017164700000000001
aF0.0334845
aF0.00135086
aF0.0444535
aF0.0018103800000000001
aF0.0063317699999999996
aF0.0181189
aF0.0038719800000000001
aF0.019545400000000001
aF0.0182902
aF0.0058990500000000003
aF0.0170651
aF0.0078155099999999995
aF0.019966500000000002
aF0.00653032
aF0.0021187599999999999
aF0.0166625
aF0.044825200000000003
aF0.0014795399999999999
aF0.016174600000000001
aF5.7999999999999995e-07
aF0.0166287
aF0.017522200000000002
aF0.0137955
aF0.012341100000000001
aF0.0128976
aF0.031676700000000002
aF0.0084867899999999993
aF0.0143315
aF0.0044181000000000003
aF0.0150052
aF0.0102737
aF0.024334499999999998
aF0.0214612
aF0.028006199999999998
aF0.016264899999999999
aF0.023319300000000001
aF0.015017300000000001
aF0.032714800000000002
aF0.0066879000000000001
aF0.023775600000000001
aF0.021436199999999999
aF0.017738299999999999
aF0.0107618
aF0.020031899999999998
aF0.0268539
aF0.044973100000000002
aF0.0187329
aF0.027496400000000001
aF0.010317
aF0.0074171100000000002
aF0.0073615199999999999
aF0.024789700000000001
aF0.011298300000000001
aF0.019855100000000001
aF0.028638899999999998
aF0.022917300000000002
aF0.0063424500000000003
aF0.022724500000000002
aF0.00011401
aF0.027028300000000002
aF0.0197301
aF0.024877
aF0.015987000000000001
aF0.0113759
aF0.022150799999999998
aF0.018775699999999999
aF0.033258000000000003
aF0.025860999999999999
aF0.0135519
aF0.017896499999999999
aF0.0244172
aF0.019237799999999999
aF0.029818999999999998
aF0.018999499999999999
aF0.0202904
aF0.012703300000000001
aF0.021492299999999999
aF0.016487700000000001
aF0.017819700000000001
aF0.035018000000000001
aF0.016669199999999999
aF0.027474499999999999
aF0.0064599000000000002
aF0.0018230799999999999
aF0.0235122
aF0.023784799999999998
aF0.034133700000000003
aF0.038049399999999997
aF0.023663400000000001
aF0.0044990300000000002
aF0.019945500000000001
aF0.0119211
aF0.019366999999999999
aF0.0066848699999999999
aF0.0040340599999999999
aF0.0119696
aF0.017605800000000001
aF0.028927499999999998
aF0.022314400000000002
aF0.00193279
aF0.00044575000000000002
aF0.034476600000000003
aF0.015789999999999998
aF0.0014921699999999999
aF0.00037592000000000002
aF0.0177129
aF0.019200999999999999
aF2.3e-06
aF0.00346051
aF0.011980899999999999
aF0.0198283
aF0.0130613
aF0.0167133
aF0.021256299999999999
aF0.0247426
aF0.017878399999999999
aF0.041443800000000003
aF0.030137400000000002
aF0.00048888999999999996
aF0.013901500000000001
aF0.00033342000000000002
aF0.00070701
aF0.0012335
aF0.0251574
aF0.041064000000000003
aF0.0143935
aF0.0191092
aF0.0178946
aF0.017191100000000001
aF0.015672499999999999
aF0.010862800000000001
aF0.0129736
aF0.0154909
aF0.00187178
aF0.0199293
aF0.018056099999999999
aF0.0057064200000000002
aF0.037595400000000001
aF8.0000000000000002e-08
aF0.032541599999999997
aF0.0021463200000000002
aF0.023007199999999998
aF0.019823400000000001
aF0.023569400000000001
aF0.0176755
aF0.0153975
aF0.026677200000000002
aF0.026788099999999999
aF0.019621
aF0.024207300000000001
aF0.013319900000000001
aF8.5030000000000004e-05
aF0.0150101
aF0.023999099999999999
aF0.013629799999999999
aF0.011513199999999999
aF0.0123838
aF0.0121914
aF0.0085644799999999993
aF0.024569000000000001
aF0.017510100000000001
aF0.020616599999999999
aF0.029329500000000001
aF0.020955999999999999
aF0.022611900000000001
aF0.011974200000000001
aF0.0258917
aF0.0233066
aF0.0058860500000000003
aF0.027535899999999999
aF0.019248399999999999
aF0.0107633
aF0.016697799999999999
aF0.0210125
aF0.0146365
aF0.0125171
aF0.010108900000000001
aF0.023102299999999999
aa(lp20
F0.0067593699999999998
aF0.0046528200000000002
aF0.015151
aF0.0012511
aF0.0169867
aF0.0028060799999999999
aF0.0024368599999999999
aF0.0264192
aF0.0089659900000000001
aF1.9000000000000001e-07
aF0.0059830100000000004
aF0.023049
aF0.0154538
aF0.00367001
aF0.0118079
aF0.00795504
aF0.039614200000000002
aF0.0095972000000000002
aF0.011305900000000001
aF0.0217574
aF0.0034136599999999998
aF0.0037599600000000001
aF1.4300000000000001e-06
aF0.0046576400000000002
aF0.0046069700000000002
aF0.022978800000000001
aF4.9999999999999998e-08
aF0.017690899999999999
aF0.040024999999999998
aF0.0188597
aF0.011920699999999999
aF0.0100946
aF0.0048095100000000003
aF0.0085007699999999995
aF0.0143961
aF0.029577099999999999
aF0.0031524000000000001
aF0.0098355300000000003
aF0.0084058099999999997
aF0.0011923299999999999
aF0.0011148600000000001
aF0.0160567
aF0.0145775
aF0.0019820100000000002
aF0.0260856
aF0.00023948
aF0.00725562
aF0.00269981
aF0.017767100000000001
aF0.0089262999999999999
aF7.0000000000000005e-08
aF0.0165702
aF0.018401799999999999
aF0.011424800000000001
aF0.013638000000000001
aF2.1900000000000002e-06
aF0.0190244
aF0.016697
aF0.0127364
aF0.016309199999999999
aF0.0030592200000000001
aF0.00472559
aF0.0048403099999999996
aF0.017593000000000001
aF0.014145700000000001
aF0.019898900000000001
aF0.0094766899999999994
aF0.0080217599999999993
aF0.011313999999999999
aF0.0152856
aF0.0107043
aF0.014427000000000001
aF0.023809799999999999
aF0.0066181800000000004
aF0.0100556
aF0.0069213800000000004
aF0.021146399999999999
aF0.013836899999999999
aF0.0127159
aF0.00233191
aF0.0067896099999999997
aF0.00094899000000000003
aF0.0107254
aF0.00067801000000000005
aF0.0083432200000000001
aF0.013608200000000001
aF0.0056876299999999999
aF0.0062176999999999996
aF0.0086907600000000005
aF0.0026766899999999998
aF0.010189999999999999
aF0.0096062700000000001
aF0.0066944999999999999
aF0.0078227799999999997
aF0.00063716000000000001
aF0.0095443500000000001
aF0.0046147899999999997
aF0.012760499999999999
aF0.015693100000000001
aF0.0055646999999999997
aF0.00433417
aF0.0118639
aF0.0060005299999999996
aF0.0068414499999999998
aF0.0158716
aF0.016513400000000001
aF0.018103000000000001
aF0.0078967399999999993
aF0.012442999999999999
aF0.016489299999999998
aF1.4999999999999999e-07
aF0.0122183
aF0.0098687600000000007
aF0.0222218
aF0.0095309799999999997
aF0.0068368999999999999
aF0.0037563399999999999
aF0.0056938400000000004
aF0.0061369099999999998
aF0.0077680700000000002
aF0.0096807899999999999
aF0.0078893000000000001
aF0.0077793799999999998
aF0.024485400000000001
aF0.0069400900000000003
aF0.0070429500000000001
aF0.0033707300000000002
aF0.017776900000000002
aF0.0066715999999999998
aF0.0084765699999999992
aF0.0036809400000000002
aF0.0029879799999999999
aF0.00220046
aF0.0275532
aF0.0051221799999999996
aF0.0074488699999999998
aF0.0077324100000000003
aF0.0148313
aF0.0064093500000000003
aF0.0021311199999999998
aF0.0288927
aF0.0063428099999999999
aF0.018791700000000001
aF0.0078488599999999992
aF0.022208100000000001
aF0.0023503399999999998
aF0.019493900000000002
aF0.0199942
aF0.0064526100000000001
aF0.034305599999999999
aF0.021651699999999999
aF0.015259
aF0.0051963199999999999
aF0.027145900000000001
aF0.0034673600000000001
aF0.017779699999999999
aF0.0092665200000000003
aF0.0109055
aF0.0203062
aF0.0117176
aF0.0078824600000000009
aF0.0074127899999999998
aF0.0022409600000000002
aF0.0147379
aF0.014251399999999999
aF0.015276100000000001
aF0.00316856
aF0.0035616100000000002
aF0.012493199999999999
aF0.022060199999999999
aF0.00221623
aF0.0053231499999999996
aF0.0138835
aF0.017371399999999999
aF0.00649834
aF0.0022439700000000001
aF0.0021997100000000001
aF0.016230100000000001
aF0.017602300000000001
aF0.0125868
aF0.022435699999999999
aF0.0033126900000000001
aF0.012821600000000001
aF0.0127063
aF0.0146515
aF0.014937199999999999
aF0.011528800000000001
aF0.036578899999999998
aF0.0133212
aF0.00015385999999999999
aF0.017809700000000001
aF0.0131801
aF0.00324099
aF0.0086317700000000004
aF0.014479199999999999
aF0.0123315
aF0.0080618700000000005
aF0.011827499999999999
aF0.0093529000000000008
aF0.0138493
aF0.022477
aF0.0025826999999999998
aF0.0079777400000000005
aF0.0014786300000000001
aF0.0043550400000000001
aF0.0069813899999999996
aF0.014593200000000001
aF0.0023080599999999998
aF0.0046504399999999996
aF0.023433900000000001
aF0.0043893100000000004
aF0.0093138400000000003
aF0.0078410100000000007
aF0.0056894299999999997
aF0.026836599999999999
aF0.056437500000000002
aF0.0056598200000000003
aF0.025450199999999999
aF0.0131839
aF0.00378284
aF0.0042259799999999998
aF0.0085042499999999997
aF0.0092084599999999999
aF0.0039217399999999999
aF0.018180700000000001
aF0.0076720199999999999
aF0.0074381899999999999
aF0.020492900000000001
aF0.0082528099999999993
aF0.021490499999999999
aF0.0197383
aF0.0101852
aF0.0077030400000000004
aF0.013006999999999999
aF0.0138719
aF0.012212199999999999
aF0.0055057500000000002
aF0.0048170899999999996
aF0.0118949
aF0.0105649
aF0.0087875599999999998
aF0.0122504
aF0.0035769
aF0.0098650200000000004
aF0.0084043799999999995
aF0.0043702999999999997
aF0.0088345999999999997
aF0.016522800000000001
aF0.011620800000000001
aF0.0090937299999999995
aF0.0048247300000000002
aF0.0045170399999999999
aF0.0109088
aF1.3400000000000001e-06
aF0.0053872
aF0.015664000000000001
aF0.0111284
aF0.00038385999999999997
aF0.0130212
aF0.0029411799999999998
aF0.0135397
aF0.0043634099999999999
aF0.0080309400000000003
aF0.022804600000000001
aF0.013554999999999999
aF0.019925600000000002
aF0.0089712400000000001
aF0.0012153299999999999
aF0.025004200000000001
aF0.0087531999999999992
aF0.010061
aF0.0163413
aF0.014008899999999999
aF0.0089031400000000004
aF0.0153533
aF0.0079428099999999998
aF0.0062195000000000002
aF0.0071693
aF0.00417308
aF0.0033322500000000001
aF0.0064479799999999999
aF0.020208
aF0.0060669299999999999
aF0.0122235
aF0.013447799999999999
aF0.0043226200000000001
aF0.0056709300000000002
aF0.0053237500000000004
aF0.010749999999999999
aF0.0048854299999999996
aF0.0275654
aF0.0073741700000000002
aF0.00103425
aF0.0021344900000000002
aF0.021828
aF0.0126426
aF0.0131894
aF0.0205679
aF0.0024578500000000001
aF0.020309799999999999
aF0.0070989
aF0.0085654200000000007
aF0.017079299999999999
aF0.019703499999999999
aF0.00059095000000000003
aF0.0052149900000000001
aF0.0074595800000000004
aF0.030451700000000002
aF0.0052881300000000003
aF0.016575599999999999
aF0.0083961599999999997
aF0.015883700000000001
aF0.010940699999999999
aF0.0084832999999999992
aF0.020604399999999998
aF0.0039238900000000002
aF0.010560399999999999
aF0.0093234300000000006
aF0.0046460299999999998
aF0.0097829600000000003
aF0.0013561999999999999
aF0.0164469
aF0.00867069
aF0.0307651
aF0.017593000000000001
aF0.0119732
aF0.0071582
aF0.014844700000000001
aF0.0046957099999999996
aF0.010172199999999999
aF0.0260951
aF0.0103424
aF0.0092918299999999992
aF0.0161928
aF0.011909100000000001
aF0.0166403
aF0.0156682
aF0.0079573400000000002
aF0.0081412700000000008
aF0.022609299999999999
aF0.0054727300000000003
aF0.00624203
aF0.0138487
aF0.0042477000000000001
aF8.0000000000000002e-08
aF0.0080314300000000009
aF0.0056420899999999998
aF0.0082266100000000005
aF0.0086707499999999996
aF0.0118567
aF0.015695400000000002
aF0.013299800000000001
aF0.015656
aF0.017284500000000001
aF0.00387309
aF0.045229900000000003
aF0.0062676700000000004
aF0.0024326299999999999
aF0.0094940700000000003
aF0.0042634700000000001
aF0.0034289699999999999
aF0.0077021499999999996
aF0.0042935300000000003
aF0.0089463200000000007
aF0.00278101
aF0.014045
aF0.0063383800000000002
aF0.017519400000000001
aF0.0143427
aF0.025194600000000001
aF0.011291799999999999
aF0.020019599999999999
aF0.0134488
aF0.0083479699999999997
aF0.0070021900000000002
aF0.00179883
aF0.00569273
aF0.0182586
aF0.0219099
aF0.0083701799999999996
aF0.0019726700000000002
aF0.0082774800000000003
aF0.0072891700000000002
aF0.0044825999999999998
aF0.0094533599999999992
aF0.032606299999999998
aF0.0034294999999999998
aF0.021963199999999999
aF0.017670399999999999
aF0.022812599999999999
aF0.0061496700000000003
aF0.024409699999999999
aF0.018301999999999999
aF0.0077118000000000004
aF0.012012399999999999
aF0.0028209200000000002
aF0.0028533899999999999
aF0.0036779199999999999
aF0.0150384
aF0.0132788
aF0.0092857100000000008
aF0.021512900000000001
aF0.0023154299999999998
aF0.0089786299999999996
aF0.0073628599999999997
aF0.0090127899999999997
aF0.017044699999999999
aF0.018135700000000001
aF0.0039924599999999998
aF0.0024675500000000002
aF0.0037587499999999999
aF0.010803200000000001
aF0.0108267
aF0.0093863999999999996
aF0.00385609
aF0.0030553099999999999
aF0.046883899999999999
aF0.0068045099999999997
aF0.0060782900000000001
aF0.0096817899999999991
aF0.011327800000000001
aF0.0086041799999999995
aF0.0067090800000000001
aF0.0126715
aF0.0037003600000000002
aF0.023739699999999999
aF0.0031664499999999999
aF0.0131472
aF0.0131837
aF0.0098610199999999999
aF0.0095182099999999992
aF0.0073214600000000001
aF0.0083459299999999997
aF0.0039244800000000002
aF0.0057001700000000001
aF0.00334761
aF0.0124797
aF0.028403500000000002
aF0.0084372300000000004
aF0.013239900000000001
aF0.0053466099999999999
aF0.013813499999999999
aF0.017425400000000001
aF0.0099705699999999998
aF0.013539300000000001
aF0.0075389100000000002
aF0.00709905
aF0.0137425
aF0.0040438599999999998
aF0.0025493500000000001
aF0.00714607
aF0.0095432699999999995
aF0.0117617
aF0.0035550600000000001
aF0.010318300000000001
aF0.017895899999999999
aF0.0035778899999999998
aF0.0052982599999999999
aF0.0061581199999999996
aF0.0068463100000000004
aF0.0103065
aF0.0130622
aF0.019016399999999999
aF0.0044134700000000001
aF0.0137749
aF0.016316399999999998
aF0.0015338000000000001
aF0.017106099999999999
aF0.016442999999999999
aF0.017954100000000001
aF0.017670000000000002
aF0.0095427800000000007
aF0.023337400000000001
aF0.0121177
aF0.0044933500000000001
aF0.0066348800000000001
aF0.017354100000000001
aF0.0113229
aF0.010474199999999999
aF0.026667300000000001
aF0.0041254200000000003
aF0.0096399999999999993
aF0.014704500000000001
aF0.031820899999999999
aF0.0047085499999999997
aF0.0191285
aF0.0040017999999999998
aF0.0062820999999999997
aF0.0040512999999999999
aF0.020802500000000002
aF0.0130054
aF0.011916
aF0.0077380599999999997
aF0.0070718300000000003
aF0.0036808499999999998
aF0.0180308
aF0.010520399999999999
aF0.0017562599999999999
aF0.0214027
aF0.013501900000000001
aF0.018329600000000001
aF0.018049900000000001
aF0.0060370600000000003
aF0.0160089
aF0.0152027
aF0.020086300000000001
aF0.0152979
aF0.0146076
aF0.0044026999999999998
aF0.00090779999999999995
aF0.0110446
aF0.0124861
aF0.0074830000000000001
aF0.028305899999999998
aF0.0057324999999999997
aF0.010389499999999999
aF0.027270200000000001
aF0.019671999999999999
aF0.014975499999999999
aF0.0060764900000000004
aF0.0225904
aF0.0078704399999999994
aF0.0135768
aF0.013224700000000001
aF0.0021996099999999998
aF0.0144064
aF0.0103555
aF0.0073108599999999998
aF0.0123488
aF0.0135202
aF0.012540000000000001
aF0.0024502199999999999
aF0.0039591899999999996
aF0.0116484
aF0.0111135
aF0.0098007100000000007
aF0.0070077899999999999
aF0.0022829299999999999
aF0.0139837
aF0.0073901100000000001
aF0.0188018
aF0.0033885199999999999
aF0.0018789200000000001
aF0.029533799999999999
aF0.025773399999999998
aF0.0123599
aF0.0059036100000000001
aF0.0013791000000000001
aF0.015883999999999999
aF0.0035906800000000002
aF0.011130599999999999
aF0.0122457
aF0.0113422
aF0.018098
aF0.010359
aF0.018877100000000001
aF0.0090249600000000003
aF0.0168197
aF0.0133516
aF0.0417376
aF0.0039757899999999999
aF0.017708499999999999
aF0.0084085700000000006
aF0.0100497
aF0.0035908200000000002
aF0.0091060599999999992
aF0.0042140499999999996
aF0.0098790800000000002
aF0.0033926899999999999
aF0.0081517199999999995
aF0.0076872199999999998
aF0.0114264
aF0.013734100000000001
aF0.00186881
aF0.0043452100000000004
aF0.0048189299999999999
aF0.0111909
aF0.016348499999999998
aF0.0044013799999999999
aF0.014399199999999999
aF0.0041807499999999996
aF0.0185839
aF0.010722000000000001
aF0.01116
aF0.0080866900000000005
aF0.0312442
aF0.0199481
aF0.0040712200000000004
aF0.015752100000000002
aF0.011109000000000001
aF0.026810400000000002
aF0.0101277
aF0.0081182400000000005
aF0.0163067
aF0.018797000000000001
aF0.0044674700000000003
aF0.0085321800000000003
aF0.0108752
aF0.0097557800000000004
aF0.0086469000000000008
aF0.0099788299999999993
aF0.033299299999999997
aF0.030495399999999999
aF0.0125372
aF0.0032436600000000002
aa(lp21
F0.0020990800000000001
aF0.00228225
aF0.00101628
aF0.00027086999999999999
aF0.013380899999999999
aF0.001755
aF0.0014096499999999999
aF0.0021224999999999998
aF0.010293099999999999
aF2.7000000000000001e-07
aF0.0044714500000000001
aF0.00098482999999999991
aF0.00029126
aF0.0165211
aF0.00695679
aF0.018285200000000001
aF0.0044924500000000003
aF0.0044167
aF0.0029439599999999998
aF0.0037928699999999998
aF1.4100000000000001e-06
aF0.0047660100000000002
aF0.013148
aF0.0093270499999999999
aF0.0073231800000000003
aF0.00107924
aF0.0157739
aF0.00150577
aF0.00069439999999999997
aF0.0063819899999999997
aF0.0023355099999999998
aF0.010997
aF0.001124
aF0.0030450099999999999
aF0.00092942999999999997
aF0.00093298000000000003
aF0.0015723499999999999
aF0.00083984000000000001
aF0.0135829
aF0.0022770300000000002
aF0.0081271299999999998
aF0.0013837999999999999
aF0.0034394199999999999
aF0.020267400000000001
aF0.0018738299999999999
aF0.00078936000000000002
aF0.011212700000000001
aF0.00221018
aF0.016427400000000002
aF0.00210137
aF0.0039625399999999996
aF0.0015009699999999999
aF0.0106251
aF0.0023995599999999998
aF0.0162005
aF0.0046207699999999997
aF0.00494803
aF0.0054498599999999999
aF0.0017743100000000001
aF1.9099999999999999e-06
aF0.0061716399999999999
aF0.0023483800000000002
aF0.0022696399999999999
aF0.0010632
aF0.019927
aF0.0146445
aaa.