(lp1
(lp2
(S'3'
S'1'
S'4'
tp3
a(lp4
a(lp5
a(lp6
F0.056731080000000003
aF0.050340700000000002
aF0.053867199999999997
aF0.051807899999999997
aF0.043798299999999998
aF0.045598699999999999
aF0.061813199999999999
aF0.048835200000000002
aF0.092777300000000007
aF0.0442636
aF0.036033799999999998
aF0.064747300000000008
aF0.048142499999999998
aF0.053856399999999999
aF0.04792917
aF0.049914899999999998
aF0.051186599999999999
aF0.049922399999999999
aF0.048574800000000001
aF0.075632699999999997
aF0.048115290000000005
aF0.053528399999999997
aF0.043178300000000003
aF0.0712029
aF0.050142100000000002
aF0.079956600000000003
aF0.038905000000000002
aF0.0558728
aF0.053091699999999999
aF0.062146199999999999
aF0.050006599999999998
aF0.042926400000000003
aF0.048308499999999997
aF0.041994099999999999
aF0.034358899999999998
aF0.0441234
aF0.0471086
aF0.046214400000000003
aF0.057654400000000001
aF0.080285200000000001
aF0.072490600000000002
aF0.05993627
aF0.0522636
aF0.037003000000000001
aF0.051372899999999999
aF0.057754899999999998
aF0.055163200000000003
aF0.042635800000000001
aF0.049062099999999997
aF0.0532737
aF0.059721299999999998
aF0.053453599999999997
aF0.049200800000000003
aF0.041031400000000003
aF0.051867730000000001
aF0.049612999999999997
aF0.043860299999999998
aF0.081642300000000001
aF0.074433699999999992
aF0.043323899999999999
aF0.049116
aF0.046838299999999999
aF0.0599347
aF0.054494899999999999
aF0.055685199999999997
aF0.049213300000000001
aF0.049097599999999998
aF0.0391986
aF0.049711699999999998
aF0.075700199999999995
aF0.042619299999999999
aF0.038124100000000001
aF0.074218000000000006
aF0.067379800000000004
aF0.073965000000000003
aF0.056783199999999999
aF0.060065189999999997
aF0.067943199999999995
aF0.043017699999999999
aF0.065546800000000002
aF0.050036900000000002
aF0.051883499999999999
aF0.065934800000000002
aF0.071447800000000006
aF0.046017599999999999
aF0.051371699999999999
aF0.041789800000000002
aF0.060830200000000001
aF0.047668000000000002
aF0.041603899999999999
aF0.052212500000000002
aF0.038926000000000002
aF0.033928699999999999
aF0.061536899999999999
aF0.064380999999999994
aF0.056615199999999997
aF0.055504600000000001
aF0.034803899999999999
aF0.041812299999999997
aF0.037570600000000003
aF0.043097900000000001
aF0.044530800000000002
aF0.033303800000000001
aF0.032736599999999998
aF0.039843200000000002
aF0.070081000000000004
aF0.050413300000000001
aF0.062424149999999998
aF0.0480183
aF0.033944599999999998
aF0.048128499999999998
aF0.050170899999999997
aF0.066499000000000003
aF0.073489700000000005
aF0.065200899999999992
aF0.063969100000000001
aF0.086277599999999996
aF0.046336599999999999
aF0.054122499999999997
aF0.049597000000000002
aF0.049717999999999998
aF0.046455799999999998
aF0.055900619999999998
aF0.052991200000000002
aF0.070371600000000006
aF0.051548499999999997
aF0.063514230000000005
aF0.058074599999999997
aF0.050517300000000001
aF0.060491000000000003
aF0.06006425
aF0.0515363
aF0.051884300000000001
aF0.065591300000000005
aF0.058964500000000003
aF0.047598300000000003
aF0.046962900000000002
aF0.065495399999999995
aF0.044506299999999999
aF0.064542299999999997
aF0.071674100000000004
aF0.045391599999999997
aF0.050087
aF0.042794699999999998
aF0.043345700000000001
aF0.047672300000000001
aF0.052882199999999997
aF0.047524669999999998
aF0.08264450000000001
aF0.066095600000000004
aF0.063358499999999998
aF0.0616967
aF0.050790979999999999
aF0.043676
aF0.043919
aF0.068116200000000002
aF0.046206200000000003
aF0.061778899999999998
aF0.050796599999999997
aF0.041589099999999997
aF0.0520616
aF0.049568800000000003
aF0.045488399999999998
aF0.043948500000000001
aF0.056220600000000003
aF0.057938499999999997
aF0.059841199999999997
aF0.050254670000000001
aF0.047846899999999998
aF0.038926799999999998
aF0.049868200000000001
aF0.043113499999999999
aF0.063139279999999992
aF0.0473202
aF0.036666299999999999
aF0.072181099999999998
aF0.063465199999999999
aF0.070396700000000006
aF0.084335500000000008
aF0.091319299999999992
aF0.066038399999999997
aF0.053734200000000003
aF0.091559500000000002
aF0.047333850000000004
aF0.061187199999999997
aF0.045658700000000003
aF0.047263699999999999
aF0.040975200000000003
aF0.079321600000000006
aF0.045655300000000003
aF0.049009200000000003
aF0.062109400000000002
aF0.056955400000000003
aF0.051494600000000001
aF0.079349100000000006
aF0.046704299999999997
aF0.047525299999999999
aF0.043601330000000001
aF0.082870700000000005
aF0.049805599999999998
aF0.043784299999999998
aF0.047348899999999999
aF0.036487699999999998
aF0.048138500000000001
aF0.048492
aF0.064784300000000003
aF0.063840599999999997
aF0.060694999999999999
aF0.070290400000000003
aF0.034782
aF0.055137899999999997
aF0.048445799999999997
aF0.062876100000000004
aF0.0551911
aF0.061508300000000002
aF0.061081799999999999
aF0.0474095
aF0.081850300000000001
aF0.061963499999999998
aF0.033171800000000001
aF0.063139799999999996
aF0.0581126
aF0.048665600000000003
aF0.051847299999999999
aF0.054266760000000004
aF0.049061
aF0.059268599999999998
aF0.050708900000000001
aF0.060895100000000001
aF0.039550099999999998
aF0.049639699999999995
aF0.048852199999999998
aF0.050120900000000003
aF0.037052000000000002
aF0.067197499999999993
aF0.064277200000000007
aF0.0657827
aF0.035715999999999998
aF0.0547109
aF0.063339400000000004
aF0.074682899999999997
aF0.066596000000000002
aF0.06337074999999999
aF0.0778306
aF0.079322400000000001
aF0.0462237
aF0.035560399999999999
aF0.046770100000000002
aF0.063399499999999998
aF0.044525500000000003
aF0.043203699999999998
aF0.036840699999999997
aF0.063754900000000003
aF0.048575
aF0.046363000000000001
aF0.063997979999999996
aF0.065264000000000003
aF0.075881299999999999
aF0.060188899999999997
aF0.0542973
aF0.046058599999999998
aF0.077574499999999991
aF0.053050600000000003
aF0.063889199999999993
aF0.077225199999999994
aF0.069967799999999997
aF0.048793299999999998
aF0.057068800000000003
aF0.069630399999999995
aF0.067809999999999995
aF0.044526900000000001
aF0.0434359
aF0.039459300000000003
aF0.042399899999999997
aF0.055823999999999999
aF0.037745500000000001
aF0.0486474
aF0.067345299999999997
aF0.065299599999999999
aF0.059519519999999999
aF0.049490100000000002
aF0.065377790000000005
aF0.062990879999999999
aF0.054464199999999997
aF0.0552092
aF0.047421569999999996
aF0.040388899999999998
aF0.070697099999999999
aF0.063017799999999999
aF0.057384330000000004
aF0.062630500000000006
aF0.066084900000000002
aF0.078583899999999998
aF0.050789300000000002
aF0.057097099999999998
aF0.041525600000000003
aF0.051350100000000003
aF0.07864270000000001
aF0.038556399999999998
aF0.051936499999999997
aF0.046789299999999999
aF0.071660000000000001
aF0.049935300000000002
aF0.0974439
aF0.0438652
aF0.063771800000000003
aF0.066085699999999997
aF0.045392500000000002
aF0.049981400000000002
aF0.0575957
aF0.064477199999999998
aF0.029362599999999999
aF0.064462499999999992
aF0.055780030000000001
aF0.041227809999999997
aF0.041911999999999998
aF0.053137400000000001
aF0.060094600000000005
aF0.054932599999999998
aF0.059027400000000001
aF0.044181400000000003
aF0.055421699999999997
aF0.047718499999999997
aF0.070483799999999999
aF0.0515602
aF0.048813000000000002
aF0.070257600000000003
aF0.071204760000000006
aF0.043491500000000002
aF0.0441316
aF0.077413399999999993
aF0.035794899999999998
aF0.036030199999999998
aF0.073875700000000002
aF0.053084399999999997
aF0.0671794
aF0.067561299999999991
aF0.051001400000000002
aF0.088069499999999995
aF0.056744299999999998
aF0.060090649999999995
aF0.071826299999999996
aF0.043050900000000003
aF0.043810799999999997
aF0.046049800000000002
aF0.060453300000000001
aF0.042158599999999997
aF0.042311099999999997
aF0.0845085
aF0.079448199999999997
aF0.072580699999999998
aF0.043245199999999998
aF0.058284099999999998
aF0.047786099999999998
aF0.0389643
aF0.048961829999999998
aF0.05637847
aF0.046449799999999999
aF0.0393738
aF0.071563500000000002
aF0.061460420000000002
aF0.036405199999999999
aF0.038664400000000002
aF0.067790000000000003
aF0.053911300000000002
aF0.055586799999999999
aF0.043221299999999997
aF0.053638499999999999
aF0.048846500000000001
aF0.047356799999999998
aF0.074378799999999995
aF0.073406700000000005
aF0.096400100000000002
aF0.049015599999999999
aF0.0701571
aF0.0484044
aF0.053852299999999999
aF0.040528700000000001
aF0.058716359999999995
aF0.056405900000000002
aF0.044441500000000002
aF0.044398100000000003
aF0.056016700000000003
aF0.1093514
aF0.067486599999999994
aF0.043849399999999997
aF0.053907799999999999
aF0.068409300000000006
aF0.048154799999999998
aF0.051663299999999995
aF0.066798099999999999
aF0.040138
aF0.061483799999999998
aF0.037148100000000003
aF0.051442500000000002
aF0.077287999999999996
aF0.097186899999999993
aF0.052140899999999997
aF0.053869309999999997
aF0.039155099999999998
aF0.045389600000000002
aF0.039324600000000001
aF0.070361000000000007
aF0.048920400000000003
aF0.080909400000000006
aF0.0466151
aF0.0530792
aF0.039707100000000002
aF0.062393299999999999
aF0.072084099999999998
aF0.055818630000000001
aF0.046193100000000001
aF0.041845599999999997
aF0.038089900000000003
aF0.071368899999999999
aF0.0508995
aF0.053990999999999997
aF0.065829699999999991
aF0.057141999999999998
aF0.051658999999999997
aF0.050337300000000001
aF0.058640900000000003
aF0.047434299999999999
aF0.060014999999999999
aF0.081190600000000002
aF0.069240919999999997
aF0.055867929999999996
aF0.062040230000000002
aF0.069076349999999995
aF0.047717900000000001
aF0.065112799999999998
aF0.064472299999999996
aF0.0494314
aF0.050145500000000003
aF0.070004899999999995
aF0.064425800000000005
aF0.0752245
aF0.0625053
aF0.067057199999999997
aF0.045844099999999999
aF0.071575
aF0.059552109999999998
aF0.048277399999999998
aF0.057565499999999999
aF0.042948800000000002
aF0.041680599999999998
aF0.0409495
aF0.061934599999999999
aF0.054602900000000003
aF0.038588699999999997
aF0.049774800000000001
aF0.049901000000000001
aF0.040449699999999998
aF0.069744200000000006
aF0.055493000000000001
aF0.075698500000000002
aF0.066351060000000003
aF0.051802099999999997
aF0.10666639999999999
aF0.041921100000000003
aF0.046220400000000002
aF0.045614979999999999
aF0.062268200000000003
aF0.066074900000000006
aF0.054566000000000003
aF0.064716599999999999
aF0.077869899999999992
aF0.040467299999999998
aF0.05560739
aF0.077794000000000002
aF0.047236399999999998
aF0.045943900000000003
aF0.056259690000000001
aF0.045634000000000001
aF0.077517500000000003
aF0.057636300000000001
aF0.065709500000000004
aF0.069800100000000004
aF0.056279999999999997
aF0.041578409999999996
aF0.053873999999999998
aF0.060338090000000004
aF0.050892300000000001
aF0.056629199999999998
aF0.047385400000000001
aF0.075152999999999998
aF0.060466209999999999
aF0.081006599999999998
aF0.053733799999999998
aF0.049472599999999999
aF0.041836600000000002
aF0.0571177
aF0.042136100000000003
aF0.048023000000000003
aF0.051939600000000002
aF0.042905699999999998
aF0.064505999999999994
aF0.043017100000000003
aF0.048899400000000003
aF0.067855899999999997
aF0.057006399999999999
aF0.054291300000000001
aF0.068411300000000008
aF0.048357999999999998
aF0.072910100000000005
aF0.066052899999999998
aF0.069446400000000005
aF0.076820299999999994
aF0.042423700000000002
aF0.051559500000000001
aF0.047678600000000002
aF0.078884499999999996
aF0.038199499999999997
aF0.056275699999999998
aF0.052563400000000003
aF0.04196308
aF0.043905100000000002
aF0.039861899999999999
aF0.062818700000000005
aF0.045695100000000002
aF0.046419700000000001
aF0.062343500000000003
aF0.070576100000000003
aF0.068348999999999993
aF0.0580349
aF0.040441600000000001
aF0.060558520000000005
aF0.043389299999999999
aF0.072747820000000005
aF0.0570395
aF0.071434200000000003
aF0.057894399999999999
aF0.052742299999999999
aF0.050803599999999997
aF0.059359000000000002
aF0.044465200000000003
aF0.048217500000000003
aF0.061565089999999996
aF0.048926699999999997
aF0.038630900000000003
aF0.075961399999999998
aF0.054786500000000002
aF0.053731599999999997
aF0.028253899999999998
aF0.081018800000000002
aF0.044523199999999999
aF0.0484032
aF0.055304899999999997
aF0.040656600000000001
aF0.039839399999999997
aF0.056230099999999998
aF0.038793500000000002
aF0.054601400000000001
aF0.040340500000000001
aF0.0601545
aF0.045464600000000001
aF0.056490400000000003
aF0.0466255
aF0.041514799999999998
aF0.050686500000000002
aF0.091464799999999999
aF0.054384500000000002
aF0.052424999999999999
aF0.069117399999999996
aF0.069908899999999996
aF0.060755999999999998
aF0.0470801
aF0.045094200000000001
aF0.052251199999999998
aF0.060467
aF0.061914200000000003
aF0.057007559999999999
aF0.078495300000000004
aF0.0495127
aF0.055278479999999998
aF0.092531500000000003
aF0.055792399999999999
aF0.052819199999999997
aF0.041609100000000003
aF0.049481999999999998
aF0.078476500000000005
aF0.050825349999999998
aF0.043729799999999999
aF0.072262999999999994
aF0.051134699999999998
aF0.046700400000000003
aF0.076283299999999998
aF0.048859300000000001
aF0.074738799999999994
aF0.039865699999999997
aF0.062425599999999998
aF0.057632700000000002
aF0.046385599999999999
aF0.076269799999999999
aF0.0799459
aF0.042623899999999999
aF0.053412000000000001
aF0.053767000000000002
aF0.043925499999999999
aF0.072280800000000006
aF0.081942399999999999
aF0.051562299999999998
aF0.064673999999999995
aF0.050171800000000003
aF0.065416300000000011
aF0.050868629999999998
aF0.053184419999999996
aF0.044456900000000001
aF0.043158000000000002
aF0.045173499999999998
aF0.053768099999999999
aF0.047974299999999998
aF0.047473399999999999
aF0.046894400000000003
aF0.038603499999999999
aF0.059993200000000003
aF0.042498500000000002
aF0.048056300000000003
aF0.047473799999999997
aF0.048422100000000003
aF0.085674
aF0.064740699999999998
aF0.064562999999999995
aF0.060038800000000003
aF0.038105399999999998
aF0.084571800000000003
aF0.030356500000000002
aF0.062783199999999997
aF0.047970100000000002
aF0.053248539999999997
aF0.040812899999999999
aF0.066129300000000002
aF0.0410214
aF0.045608599999999999
aF0.049303659999999999
aF0.050562599999999999
aF0.095016100000000006
aF0.044215400000000002
aF0.069394899999999995
aF0.0631409
aF0.048919600000000001
aF0.044593599999999997
aF0.078103800000000001
aF0.047219900000000002
aF0.074415400000000007
aF0.048495900000000002
aF0.055430699999999999
aF0.058360299999999997
aF0.045891500000000002
aF0.044062999999999998
aF0.065459000000000003
aF0.077181899999999998
aF0.053219000000000002
aF0.054486199999999999
aF0.0431823
aF0.048167000000000001
aF0.066740000000000008
aF0.045053999999999997
aF0.068683300000000003
aF0.061069299999999993
aF0.054207999999999999
aF0.063344999999999999
aF0.054933599999999999
aF0.044279399999999997
aF0.064446799999999999
aF0.093455700000000003
aF0.035269099999999998
aF0.069948099999999999
aF0.0726961
aF0.038603999999999999
aF0.042849600000000002
aF0.040203200000000001
aF0.03601
aF0.068221299999999999
aF0.062470100000000001
aF0.080875799999999998
aF0.067091600000000001
aF0.076065999999999995
aF0.044338299999999997
aF0.045720400000000001
aF0.0294734
aF0.072832499999999994
aF0.069098499999999993
aF0.056140299999999997
aF0.077272199999999999
aF0.042227300000000002
aF0.052194299999999999
aF0.0362385
aF0.049444299999999997
aF0.039039200000000003
aF0.0297708
aF0.062621399999999994
aF0.060514600000000002
aF0.067374400000000001
aF0.055395800000000002
aF0.0579123
aF0.072582900000000006
aF0.053948700000000002
aF0.092486999999999986
aF0.058305900000000001
aF0.075109200000000001
aF0.052939100000000003
aF0.0414898
aF0.0525196
aF0.066714399999999993
aF0.052456700000000002
aF0.035836
aF0.069266500000000009
aF0.049133999999999997
aF0.065458829999999996
aF0.051782080000000001
aF0.0455599
aF0.085128799999999991
aF0.046275499999999997
aF0.043906399999999998
aF0.045754200000000002
aF0.062563999999999995
aF0.043619699999999997
aF0.045075400000000002
aF0.050968800000000002
aF0.046188100000000003
aF0.0490658
aF0.053541600000000002
aF0.038290600000000001
aF0.049646799999999998
aF0.069674700000000006
aF0.069324999999999998
aF0.039422100000000002
aF0.046846100000000002
aF0.057092200000000003
aF0.042035599999999999
aF0.0452351
aF0.050235500000000002
aF0.049324100000000003
aF0.070081400000000002
aF0.051373299999999997
aF0.059986900000000003
aF0.051203100000000001
aF0.0462078
aF0.039704200000000002
aF0.058862500000000005
aF0.049142900000000003
aF0.085349499999999995
aF0.070288400000000001
aF0.048418599999999999
aF0.051491799999999997
aF0.046413950000000002
aF0.0498539
aF0.060781000000000002
aF0.052676800000000003
aF0.047779299999999997
aF0.046625100000000003
aF0.050116399999999998
aF0.046918999999999995
aF0.061153720000000002
aF0.09621869999999999
aF0.051083400000000001
aF0.073567099999999996
aF0.043848900000000003
aF0.065816700000000006
aF0.048604700000000001
aF0.089059200000000005
aF0.0395357
aF0.0726551
aF0.058803800000000003
aF0.043214900000000001
aF0.053355
aF0.041882599999999999
aF0.050292400000000001
aF0.049501299999999998
aF0.051473600000000001
aF0.051956500000000003
aF0.0721715
aF0.043866700000000002
aF0.063475799999999999
aF0.063490199999999997
aF0.053858499999999997
aF0.049017999999999999
aF0.048643800000000001
aF0.042784299999999997
aF0.043637099999999998
aF0.038247799999999998
aF0.046296900000000002
aF0.0670317
aF0.046218500000000003
aF0.064035999999999996
aF0.043529699999999998
aF0.065160200000000001
aF0.044548499999999998
aF0.033922599999999997
aF0.047240400000000002
aF0.060179000000000003
aF0.061676999999999996
aF0.042084999999999997
aF0.047858199999999997
aF0.046242100000000001
aF0.055676900000000001
aF0.049491599999999997
aF0.053621500000000002
aF0.046314599999999997
aF0.053415700000000003
aF0.044137500000000003
aF0.056033899999999998
aF0.057027599999999998
aF0.065299499999999996
aF0.047410899999999999
aF0.057557400000000002
aF0.041159099999999997
aF0.0542809
aF0.0512682
aF0.073452000000000003
aF0.044698599999999998
aF0.051347999999999998
aF0.041972299999999997
aF0.063249899999999998
aF0.066989599999999996
aF0.0531926
aF0.041346399999999998
aF0.071935600000000002
aF0.053287500000000002
aF0.033339000000000001
aF0.050339399999999999
aF0.051305499999999997
aF0.0633243
aF0.040447999999999998
aF0.059270900000000001
aF0.068602999999999997
aF0.033008999999999997
aF0.044876399999999997
aF0.036906899999999999
aF0.047066299999999998
aF0.052427500000000002
aF0.068611400000000003
aF0.046194499999999999
aF0.080322500000000005
aF0.043377600000000002
aF0.046219499999999997
aF0.0466969
aF0.075356900000000004
aF0.050436599999999998
aF0.057198199999999998
aF0.047044900000000001
aF0.050550299999999999
aF0.069995500000000002
aF0.050924980000000002
aF0.062028369999999999
aF0.061184299999999997
aF0.045396499999999999
aF0.051345399999999999
aF0.0477671
aF0.046781499999999997
aF0.054129499999999997
aF0.056240800000000001
aF0.077071500000000001
aF0.051027000000000003
aF0.050424200000000002
aF0.040624399999999998
aF0.072795399999999996
aF0.039578099999999998
aF0.037884099999999997
aF0.072873999999999994
aF0.081633899999999995
aF0.053289499999999997
aF0.0480417
aF0.082114700000000013
aF0.053726599999999999
aF0.043938999999999999
aF0.046684200000000002
aF0.051719899999999999
aF0.050105200000000003
aF0.044558899999999999
aF0.057830699999999999
aF0.040636199999999997
aF0.077589400000000003
aF0.043139700000000003
aF0.070099400000000006
aF0.0595177
aF0.0675148
aF0.059117999999999997
aF0.060130299999999998
aF0.038990999999999998
aF0.082300100000000001
aF0.073619199999999996
aF0.049765179999999999
aF0.048191400000000002
aF0.080458500000000002
aF0.049716860000000002
aF0.043211399999999997
aF0.057094999999999993
aF0.043586699999999999
aF0.043848199999999997
aF0.05509095
aF0.086198300000000005
aF0.063723000000000002
aF0.053038399999999999
aF0.053057199999999999
aF0.065681400000000001
aF0.068902809999999995
aF0.059734000000000002
aF0.07196240000000001
aF0.058080600000000003
aF0.049551499999999998
aF0.040825800000000002
aF0.055432139999999998
aF0.058121529999999998
aF0.056548399999999999
aF0.045487199999999998
aF0.056205199999999997
aF0.043282399999999999
aF0.045514300000000001
aF0.055425299999999997
aF0.066489699999999999
aF0.046176799999999997
aF0.047291800000000002
aF0.047592700000000002
aF0.080058199999999996
aF0.071373999999999993
aF0.055676900000000001
aF0.0656828
aF0.073485300000000003
aF0.0642041
aF0.0318429
aF0.062411000000000001
aF0.083379200000000014
aF0.074757100000000007
aF0.053096210000000005
aF0.0545164
aF0.077467100000000011
aF0.045454300000000003
aF0.035512700000000001
aF0.058734799999999997
aF0.046639399999999998
aF0.055955400000000002
aF0.070639800000000003
aF0.048499599999999997
aF0.055238900000000001
aF0.059579400000000005
aF0.050793499999999998
aF0.047999300000000002
aF0.048413299999999999
aF0.057419999999999999
aF0.050692899999999999
aF0.054708600000000003
aF0.06705839999999999
aF0.054733400000000001
aF0.075220599999999999
aF0.0456055
aF0.044778199999999997
aF0.091257900000000003
aF0.051666999999999998
aF0.074259699999999998
aF0.080932599999999993
aF0.045202300000000001
aF0.0508621
aF0.053512999999999998
aF0.0477794
aF0.0523951
aF0.066927199999999992
aF0.049479000000000002
aF0.064069699999999993
aF0.043018599999999997
aF0.059632900000000003
aF0.065532999999999994
aF0.055555100000000003
aF0.049126999999999997
aF0.042755550000000003
aF0.056673800000000003
aF0.068702799999999994
aF0.0555031
aF0.0446328
aF0.052412970000000003
aF0.061117600000000001
aF0.053672299999999999
aF0.0802398
aF0.0496616
aF0.0831567
aF0.043465700000000003
aF0.065575499999999995
aF0.046271699999999999
aF0.063475000000000004
aF0.049414100000000002
aF0.054886499999999998
aF0.0543335
aF0.047065999999999997
aF0.080015199999999995
aF0.058253100000000002
aF0.084771200000000005
aF0.044437999999999998
aF0.061787499999999995
aF0.059286130000000006
aF0.053957699999999997
aF0.055686300000000001
aF0.042268899999999998
aF0.042727000000000001
aF0.049955100000000002
aF0.065589900000000007
aF0.047655599999999999
aF0.043333400000000001
aF0.040016120000000002
aF0.084668899999999991
aaa(lp7
(S'3'
S'1'
S'2'
tp8
a(lp9
F0.0097120899999999996
aF0.0098614600000000007
aF0.010664699999999999
aF0.0017607
aF0.012215
aF0.015650899999999999
aF0.046269900000000003
aF0.0082240999999999998
aF0.0071565400000000003
aF0.0126585
aF0.018488600000000001
aF0.0041227199999999999
aF0.0186178
aF0.0043111499999999997
aF0.025208899999999999
aF0.0110408
aF0.0143918
aF0.0173828
aF0.0034147700000000001
aF0.00476839
aF0.00349147
aF0.0070663000000000002
aF0.0044703299999999998
aF0.0151953
aF0.0154246
aF0.0403267
aF0.010817
aF0.0151269
aF0.010087499999999999
aF0.0036451999999999999
aF0.00239026
aF0.0028588900000000002
aF0.0037717599999999999
aF0.020934999999999999
aF0.00212481
aF0.0067799499999999999
aF0.013128799999999999
aF0.0081247100000000003
aF1.9000000000000001e-07
aF0.0147166
aF0.014541999999999999
aF0.0032866700000000002
aF0.0222212
aF0.0047053299999999998
aF0.010177
aF0.010216599999999999
aF0.035551600000000003
aF0.018226800000000001
aF0.010094199999999999
aF0.0078864199999999999
aF0.012839700000000001
aF0.0034083199999999998
aF0.0081670400000000004
aF0.0024240799999999999
aF0.015337399999999999
aF0.017729700000000001
aF0.0102828
aF0.0098648399999999997
aF0.0051969399999999997
aF0.0136401
aF0.019949399999999999
aF0.013127399999999999
aF0.0109119
aF0.019031699999999999
aF0.0127072
aF0.012255
aF0.0147242
aF0.0277553
aF0.0159253
aF0.0109602
aF0.0208909
aF0.0054174799999999997
aF0.019068999999999999
aF0.0042686
aF0.0013831900000000001
aF0.025271700000000001
aF0.017748199999999999
aF0.010170200000000001
aF0.0010873300000000001
aF0.010571000000000001
aF5.8999999999999996e-07
aF0.0018624799999999999
aF0.0127609
aF0.0156148
aF0.0107422
aF0.0041651300000000004
aF0.0149439
aF0.0032656999999999999
aF0.00011749
aF0.013605799999999999
aF0.0077424199999999999
aF0.0148118
aF0.0097913500000000007
aF0.0021141699999999999
aF0.00218739
aF0.0082822999999999994
aF0.018974100000000001
aF0.0013948299999999999
aF0.0065401699999999997
aF0.0081505599999999994
aF0.0113688
aF0.0140172
aF0.0035331799999999999
aF0.015756099999999999
aF0.0121228
aF0.010839400000000001
aF0.0032710700000000001
aF0.0110411
aF0.0084410800000000001
aF0.0067786900000000004
aF0.0142734
aF0.032918200000000002
aF0.0022722900000000002
aF0.0050099799999999998
aF0.0067764499999999998
aF0.0056778499999999999
aF0.017628100000000001
aF0.0050178100000000002
aF0.00153049
aF0.0024909200000000002
aF0.013798299999999999
aF0.0299099
aF0.0019262999999999999
aF0.0029425100000000002
aF0.0141063
aF0.013839199999999999
aF0.011107799999999999
aF0.0079716500000000003
aF0.0045297499999999999
aF0.0080637399999999998
aF0.014680500000000001
aF0.0029471699999999998
aF0.0056201300000000001
aF0.0021661499999999999
aF0.0158481
aF0.0072291400000000002
aF0.00088000999999999997
aF0.024990999999999999
aF0.0053429599999999999
aF0.023652900000000001
aF0.0111536
aF0.043275000000000001
aF0.00120911
aF0.013585699999999999
aF0.0148421
aF0.0036817199999999999
aF0.0315456
aF0.013794300000000001
aF0.0183182
aF0.0068737599999999996
aF0.027962000000000001
aF0.0042163299999999999
aF0.014473700000000001
aF0.0089189000000000004
aF0.0083673800000000007
aF0.0064204700000000002
aF0.0099049900000000007
aF0.0034352100000000002
aF0.0071831300000000002
aF0.0030816400000000001
aF0.0104069
aF0.0141291
aF0.016884699999999999
aF0.0077002599999999996
aF0.0011057199999999999
aF0.0120985
aF0.027078899999999999
aF0.00351126
aF0.00510182
aF0.0134135
aF0.013462999999999999
aF0.0092271899999999997
aF0.00471157
aF0.021780000000000001
aF0.0174021
aF0.0009905999999999999
aF0.0060728700000000002
aF0.019691400000000001
aF0.0105521
aF0.0043386600000000003
aF0.0177269
aF0.0094742100000000003
aF0.0043237299999999996
aF0.0132803
aF0.012349600000000001
aF0.029255699999999999
aF0.0023031200000000001
aF0.0080036900000000008
aF0.019219699999999999
aF0.0194258
aF0.0043297400000000003
aF0.0043902400000000001
aF0.0090925299999999997
aF0.0047550500000000002
aF0.00340186
aF0.0083290099999999995
aF0.0069651100000000001
aF0.0049210399999999998
aF0.017703699999999999
aF0.0014289000000000001
aF0.012977799999999999
aF0.0081237299999999991
aF0.0023277699999999998
aF0.00257486
aF0.0131536
aF0.0059747999999999997
aF0.010832100000000001
aF0.022921
aF0.012658600000000001
aF0.0019143700000000001
aF0.0136481
aF0.0065063300000000003
aF0.0369407
aF0.037952899999999998
aF0.0040738199999999997
aF0.0134836
aF0.0109844
aF0.0021162899999999998
aF0.00107427
aF0.0069277200000000001
aF0.011488099999999999
aF0.0048264500000000004
aF0.036969700000000001
aF0.019884700000000002
aF0.0045034000000000003
aF0.013926300000000001
aF0.0039453800000000001
aF0.023779600000000001
aF0.00016259999999999999
aF0.0145446
aF0.0044106500000000003
aF0.017089699999999999
aF0.015764799999999999
aF0.0136522
aF0.0061132199999999999
aF0.018121000000000002
aF0.00529284
aF0.013703999999999999
aF0.014084299999999999
aF0.0047558000000000001
aF0.0148004
aF0.0083193999999999994
aF0.0127753
aF0.0042271499999999998
aF0.010298099999999999
aF0.011195099999999999
aF0.0062080299999999998
aF0.0098369600000000005
aF0.0087438499999999992
aF0.0077001999999999999
aF0.011426
aF0.0120684
aF0.023090900000000001
aF0.0077417500000000004
aF0.00178987
aF0.0051117300000000001
aF0.00531797
aF0.0118403
aF0.012870599999999999
aF0.0057448200000000003
aF0.0181383
aF0.019677699999999999
aF0.022538200000000001
aF0.01456
aF0.0036832499999999999
aF0.015214399999999999
aF0.0096529900000000002
aF0.0060662199999999998
aF0.0092263999999999992
aF0.0156022
aF0.0131953
aF0.0076825900000000004
aF0.0148933
aF0.0051577599999999999
aF0.0179279
aF0.0050363300000000003
aF0.0153402
aF0.0039596099999999997
aF0.0081949999999999992
aF0.014022400000000001
aF0.00358823
aF0.010182200000000001
aF0.0129155
aF0.0072339600000000002
aF0.017470400000000001
aF0.014178899999999999
aF0.0061679899999999999
aF0.037910399999999997
aF0.00669083
aF0.0012818
aF0.0045505099999999998
aF0.0077869899999999997
aF0.0216901
aF0.0068268199999999999
aF0.00314182
aF0.0097738200000000008
aF0.0102947
aF0.024341000000000002
aF0.00071484999999999995
aF0.024051400000000001
aF0.0072733700000000004
aF0.0053903299999999996
aF0.013854099999999999
aF0.0136271
aF0.00358889
aF0.016993399999999999
aF0.0091592099999999992
aF0.0196986
aF0.0063479900000000004
aF0.012784500000000001
aF0.0096395999999999999
aF0.025374799999999999
aF0.0068628099999999996
aF0.0054053199999999999
aF0.024564599999999999
aF0.0108115
aF0.0046139400000000004
aF0.0025603399999999999
aF0.0092079699999999993
aF0.0068581500000000004
aF0.00338039
aF0.0079029100000000008
aF0.0203839
aF0.0033037700000000001
aF0.028773099999999999
aF0.021890099999999999
aF0.0109441
aF0.0049800199999999999
aF0.0102459
aF0.0031208299999999998
aF0.0131985
aF0.0079638399999999998
aF0.018854900000000001
aF0.0107364
aF0.011948200000000001
aF0.0099318600000000007
aF0.0142121
aF0.027941500000000001
aF0.0069007199999999999
aF0.0090028799999999996
aF0.015106
aF0.0047193399999999998
aF0.0021788300000000001
aF0.016247999999999999
aF0.0064052600000000003
aF0.0096861699999999992
aF0.0054322900000000002
aF0.011917799999999999
aF0.00386967
aF0.0072960799999999999
aF0.0091759200000000006
aF0.0110692
aF0.0055275300000000001
aF0.0061502500000000003
aF0.0109216
aF0.024079099999999999
aF0.00369514
aF0.0075336300000000004
aF0.0048198800000000003
aF0.00339588
aF0.0043024099999999996
aF0.0129642
aF0.0051836599999999997
aF0.0038138
aF0.010841
aF0.0054792900000000004
aF0.0144727
aF0.0092463100000000006
aF0.020790599999999999
aF0.0082184200000000006
aF0.014363600000000001
aF0.0147794
aF0.011199300000000001
aF0.0087908599999999993
aF0.0011443099999999999
aF0.0076920499999999998
aF0.0216949
aF0.024509699999999999
aF0.0141367
aF0.0054717100000000003
aF0.015491100000000001
aF0.0153014
aF0.0018966600000000001
aF0.0053831599999999997
aF0.0186763
aF0.0098068300000000008
aF0.019095399999999998
aF0.0146283
aF0.013905799999999999
aF0.0050569100000000004
aF0.026377600000000001
aF0.019064399999999999
aF0.0030267499999999999
aF0.023448900000000002
aF0.0096333400000000007
aF0.00345152
aF0.0030923600000000002
aF0.014792400000000001
aF0.025939799999999999
aF0.0042562900000000002
aF0.038470999999999998
aF0.0067817600000000004
aF0.0099888800000000003
aF0.016316500000000001
aF0.00433154
aF0.00031494999999999998
aF0.013563499999999999
aF0.018940499999999999
aF0.0073101700000000004
aF0.013313999999999999
aF0.0034038900000000001
aF0.012047799999999999
aF0.0143675
aF0.023200800000000001
aF0.00908226
aF0.0014774300000000001
aF0.054789600000000001
aF0.0089163999999999997
aF0.0148352
aF0.0111006
aF0.0099392999999999999
aF0.00736983
aF0.0024288199999999999
aF0.010989499999999999
aF0.0073093000000000003
aF0.015808900000000001
aF0.00311546
aF0.024696800000000001
aF0.0120845
aF0.0140321
aF0.013258300000000001
aF0.0093712699999999993
aF0.0019219
aF0.010707400000000001
aF0.0070802800000000004
aF0.0066957900000000001
aF0.0046388499999999999
aF0.0356741
aF0.0044517799999999998
aF0.011601200000000001
aF0.0062112299999999999
aF0.0088781099999999998
aF0.0093763600000000002
aF0.017177399999999999
aF0.0070569999999999999
aF0.0059858200000000002
aF0.0050177800000000003
aF0.0080178799999999998
aF0.0118928
aF0.0029824000000000001
aF0.0034429299999999999
aF0.0074432700000000001
aF0.0086682300000000007
aF0.0040512500000000002
aF0.0057280300000000003
aF0.0088310999999999997
aF0.022280700000000001
aF0.010278199999999999
aF0.0091254600000000002
aF0.0080897899999999995
aF0.0072715000000000002
aF0.00098776000000000007
aF0.012307200000000001
aF0.00659328
aF3.2000000000000001e-07
aF0.017070499999999999
aF0.017593999999999999
aF0.0159562
aF0.00094943999999999996
aF0.010266600000000001
aF1.4000000000000001e-07
aF0.012076699999999999
aF0.017862099999999999
aF0.017864499999999998
aF0.0122366
aF0.0142323
aF0.0276139
aF0.015016
aF0.0025890499999999999
aF0.0011296100000000001
aF0.012617700000000001
aF0.0074711899999999999
aF0.0095144700000000006
aF0.0202518
aF0.0052846999999999998
aF0.0113706
aF0.0143395
aF0.0078330599999999993
aF0.023695500000000001
aF0.0049560899999999998
aF0.0118916
aF0.0078323100000000003
aF0.013077099999999999
aF0.0042405799999999999
aF0.011269
aF0.0076760400000000003
aF0.0131092
aF0.0119171
aF0.0081938700000000007
aF0.0032704700000000001
aF0.00246612
aF0.0255756
aF0.0060300299999999996
aF0.0067769199999999996
aF0.015650799999999999
aF0.0094073999999999998
aF0.0034145600000000001
aF0.030077799999999998
aF0.015037999999999999
aF0.0046266299999999996
aF0.017889800000000001
aF0.0144891
aF0.023127700000000001
aF0.0199936
aF0.0139525
aF0.0085608000000000004
aF0.00079858999999999996
aF0.0088495099999999997
aF0.0131521
aF0.0068735300000000001
aF0.030878200000000001
aF0.0073544099999999996
aF0.0096085700000000003
aF0.031359600000000001
aF0.013687299999999999
aF0.0046943899999999997
aF0.0122921
aF1.6e-07
aF0.0091242800000000002
aF0.0074226200000000004
aF0.017218000000000001
aF0.0092421599999999993
aF0.022494500000000001
aF0.0138224
aF0.0020598600000000002
aF0.016855499999999999
aF0.0062986199999999996
aF0.010436900000000001
aF0.0059906600000000001
aF0.013036499999999999
aF0.0155193
aF0.00097784
aF0.00100672
aF0.0067565799999999999
aF0.0127621
aF0.0142264
aF0.0070654200000000002
aF0.0021083500000000002
aF0.0086671300000000003
aF0.0074352100000000003
aF0.0201894
aF0.0021770800000000001
aF0.0046575699999999998
aF0.031958800000000002
aF0.026765600000000001
aF0.0032260600000000002
aF0.011029300000000001
aF0.0083721799999999999
aF0.0182043
aF0.0074890599999999996
aF0.0072757899999999999
aF0.0066101600000000003
aF0.025173399999999999
aF0.0087309399999999995
aF0.025036699999999999
aF0.0018312599999999999
aF0.020675300000000001
aF0.0101809
aF0.036644799999999998
aF0.00032923000000000002
aF0.017336899999999999
aF0.016260799999999999
aF0.0047211500000000003
aF0.0092884200000000004
aF0.0020683099999999999
aF0.0075930900000000003
aF0.00416592
aF0.018649499999999999
aF0.0048183699999999998
aF0.012234399999999999
aF0.0034090000000000001
aF0.0075804399999999999
aF0.014430399999999999
aF0.00382483
aF0.0033278499999999998
aF8.0000000000000002e-08
aF0.0097916600000000006
aF0.017299200000000001
aF0.0043636400000000002
aF0.012563
aF0.0039757400000000002
aF0.0087252400000000004
aF0.0092201399999999999
aF0.010026800000000001
aF0.00060192000000000004
aF0.025286400000000001
aF0.0128366
aF0.0088244800000000009
aF0.020330500000000001
aF0.0019850499999999999
aF0.019188799999999999
aF0.0116776
aF0.013073899999999999
aF0.017039499999999999
aF0.017049999999999999
aF0.0026726499999999999
aF0.0077389800000000003
aF0.0070306800000000001
aF0.0065547499999999998
aF0.0044719099999999999
aF0.011278399999999999
aF0.031439799999999997
aF0.024655900000000001
aF0.011365699999999999
aa(lp10
F0.00077406999999999997
aF7.7200000000000006e-06
aF0.0069792400000000003
aF0.00063292000000000003
aF0.00019616999999999999
aF0.0022735300000000002
aF0.0016637900000000001
aF0.0141677
aF0.00152585
aF0.0012738999999999999
aF0.0075293399999999998
aF0.0116819
aF0.0027029300000000001
aF0.012478700000000001
aF0.0114018
aF0.00053560000000000001
aF0.0119051
aF0.0020239400000000001
aF0.0049136400000000004
aF0.00013297
aF0.00161269
aF0.0034059799999999999
aF6.7999999999999995e-07
aF0.0076504600000000004
aF0.0054905199999999996
aF0.00134706
aF0.010754
aF1.3999999999999999e-06
aF0.00012896000000000001
aF0.00313679
aF0.0021925500000000001
aF0.0098875400000000002
aF2.2000000000000001e-07
aF0.016056299999999999
aF0.00073839000000000001
aF7.0000000000000005e-08
aF0.00100285
aF0.0118545
aF0.0066361500000000004
aF0.00153228
aF8.0000000000000002e-08
aF8.0000000000000002e-08
aF0.022078400000000001
aF0.0096287000000000005
aF0.0088136699999999991
aF0.0077170800000000003
aF0.0185985
aF0.00014841
aF0.00316139
aF0.00097298000000000003
aF0.019132900000000001
aF0.0049836100000000003
aF0.0033456699999999998
aF0.0062522899999999998
aF0.00098630000000000007
aF7.0000000000000005e-08
aF0.0057501699999999998
aF0.0074409100000000002
aF0.0024398000000000002
aF0.0086723900000000003
aF0.014519499999999999
aa(lp11
F1.08e-06
aF0.054882399999999998
aF0.017576600000000001
aF0.00750697
aF0.0070705000000000004
aF0.021737200000000002
aF0.0021361900000000001
aF0.0108991
aF0.029411400000000001
aF0.017251300000000001
aF0.021087100000000001
aF0.015976799999999999
aF0.00017056999999999999
aF0.0084184299999999993
aF0.018486599999999999
aF0.025348900000000001
aF0.0246409
aF0.038891299999999997
aF0.016179200000000001
aF0.0109593
aF0.0099342900000000001
aF0.024716599999999998
aF0.0181259
aF0.0068918
aF0.021869300000000001
aF0.020297099999999998
aF0.0174582
aF0.0188586
aF0.015845000000000001
aF0.0080566500000000003
aF0.023741600000000002
aF0.014423099999999999
aF0.020371899999999998
aF0.029980900000000001
aF0.0028330199999999999
aF0.0149511
aF0.0207835
aF0.0012026300000000001
aF0.00517425
aF0.0111628
aF0.0172823
aF0.018890899999999999
aF0.0033119
aF0.0047268700000000002
aF0.017689400000000001
aF0.021663499999999999
aF0.016655900000000001
aF0.0056960800000000001
aF0.016324499999999999
aF0.0196175
aF0.0021409699999999999
aF0.0122541
aF0.0092459800000000009
aF0.011635
aF0.012785599999999999
aF0.015493699999999999
aF0.036547099999999999
aF0.035882900000000002
aF0.023672700000000001
aF0.038782900000000002
aF0.00084515000000000002
aF0.021289800000000001
aF0.031507
aF0.00030972999999999998
aF0.0107156
aF0.0135815
aF0.023632799999999999
aF0.0012884999999999999
aF0.0138567
aF0.030979
aF0.0195163
aF0.0067348599999999996
aF0.012945
aF0.0155199
aF0.0186757
aF0.026671299999999998
aF0.026234299999999999
aF0.017244200000000001
aF0.00080385000000000005
aF0.023403799999999999
aF0.015058800000000001
aF0.00486668
aF0.015529100000000001
aF0.0241614
aF0.016445700000000001
aF0.0113644
aF0.017707899999999999
aF0.0134562
aF0.0096734200000000003
aF0.0070171900000000004
aF0.0087715799999999993
aF0.015465
aF0.0031754700000000001
aF0.0297294
aF0.017290400000000001
aF0.0011869300000000001
aF0.033738200000000003
aF0.018857200000000001
aF0.029827300000000001
aF0.018851
aF0.022437599999999999
aF0.00087553000000000001
aF0.0035534099999999999
aF0.0031292999999999998
aF0.010537299999999999
aF0.0062385599999999998
aF0.0212106
aF0.020494200000000001
aF0.0216721
aF0.011691999999999999
aF0.0193341
aF0.0066406499999999997
aF0.016493500000000001
aF0.032229599999999997
aF0.0235415
aF0.0117199
aF0.00400483
aF0.0035711699999999998
aF0.0257393
aF0.0098254199999999996
aF0.020131
aF0.0293513
aF0.0246286
aF0.015689700000000001
aF0.0098327599999999994
aF0.060411199999999998
aF0.015347599999999999
aF0.011523
aF0.0128205
aF0.013567299999999999
aF0.017998900000000002
aF0.0477104
aF0.0065542100000000004
aF0.021453
aF0.017037199999999999
aF0.013140499999999999
aF0.00120283
aF0.026981100000000001
aF0.017143800000000001
aF0.013594
aF0.0238722
aF0.0033826199999999998
aF0.0046627300000000003
aF0.0018937299999999999
aF0.0080519500000000004
aF0.017333299999999999
aF0.0152283
aF0.0216178
aF0.0110667
aF0.026512600000000001
aF0.0069577099999999998
aF0.030873899999999999
aF0.020642600000000001
aF0.0093327600000000007
aF0.062316000000000003
aF0.0055587800000000001
aF0.017807099999999999
aF0.013395499999999999
aF0.0273295
aF0.016815900000000002
aF0.0097077900000000009
aF0.021410700000000001
aF0.0048193899999999998
aF0.0189836
aF0.00432001
aF0.0016814899999999999
aF0.014164700000000001
aF0.0047221099999999998
aF0.040934999999999999
aF0.017605300000000001
aF0.0159423
aF0.016834499999999999
aF0.018800600000000001
aF0.019851799999999999
aF0.017053200000000001
aF0.031406999999999997
aF0.0090649800000000003
aF0.019089800000000001
aF0.0024072199999999998
aF0.0049736199999999998
aF0.016604399999999998
aF0.0086710899999999994
aF0.0245591
aF0.0390116
aF0.024550800000000001
aF0.0253396
aF0.011985900000000001
aF0.019458400000000001
aF0.016921200000000001
aF0.0039079600000000003
aF0.031535100000000003
aF0.00085377999999999995
aF0.0282927
aF0.0023755500000000001
aF0.0189392
aF0.0168133
aF0.022357700000000001
aF0.026057799999999999
aF0.045156700000000001
aF0.0143689
aF0.016946099999999999
aF0.018190100000000001
aF0.00376443
aF0.0096967200000000007
aF0.032396800000000003
aF0.0148862
aF0.016765100000000002
aF0.0322034
aF0.022008699999999999
aF0.0074012399999999999
aF0.0291901
aF0.00136436
aF0.021069999999999998
aF0.013349700000000001
aF0.0269351
aF0.022296099999999999
aF0.020382000000000001
aF0.022560299999999998
aF0.025999999999999999
aF0.017607899999999999
aF0.018368900000000001
aF0.022293400000000001
aF0.016321800000000001
aF0.023800999999999999
aF0.021892200000000001
aF0.012471899999999999
aF0.0236315
aF0.022785699999999999
aF0.018374600000000001
aF0.015091800000000001
aF0.012534099999999999
aF0.018039199999999998
aF0.030748500000000002
aF0.021649499999999999
aF0.0224023
aF0.00401783
aF0.00082607999999999998
aF0.017498799999999998
aF0.019449999999999999
aF0.0198703
aF0.027524099999999999
aF0.0228743
aF0.011456300000000001
aF0.0232816
aF0.0108507
aF0.00021914999999999999
aF0.010016000000000001
aF0.0136711
aF0.0071583200000000001
aF0.021085099999999999
aF0.026677699999999999
aF0.046527199999999998
aF0.015379200000000001
aF0.027407399999999998
aF0.019665800000000001
aF0.030341900000000002
aF0.016634699999999999
aF0.0130752
aF0.017295100000000001
aF0.020494499999999999
aF0.022979800000000002
aF0.019275199999999999
aF0.023653500000000001
aF0.0185414
aF0.048844600000000002
aF0.0239125
aF0.0053742800000000004
aF0.0021746700000000001
aF0.033210099999999999
aF0.044455599999999998
aF0.0220834
aF0.014387799999999999
aF0.029241199999999998
aF0.0147826
aF0.0133703
aF0.0144942
aF0.028068900000000001
aF0.020390599999999998
aF0.0032903799999999999
aF0.020483399999999999
aF5.9999999999999995e-08
aF0.0169991
aF0.00493385
aF0.042912899999999997
aF0.018057900000000002
aF2.1e-07
aF0.0124543
aF0.025959400000000001
aF0.0098962400000000006
aF0.00232913
aF0.0098025000000000004
aF0.014677300000000001
aF0.022392499999999999
aF0.0200772
aF0.014421
aF0.024160899999999999
aF0.018886699999999999
aF0.016133000000000002
aF0.022087800000000001
aF0.0082423099999999992
aF0.0115785
aF0.014817800000000001
aF0.010258
aF0.0104844
aF0.019696999999999999
aF0.021983900000000001
aF0.020747399999999999
aF0.036988199999999999
aF0.023624699999999998
aF0.0109812
aF0.013384
aF0.013931300000000001
aF0.0054381500000000001
aF0.018714499999999998
aF0.0068351699999999998
aF0.013762399999999999
aF0.014881500000000001
aF0.014416699999999999
aF0.0205679
aF0.024374900000000001
aF0.019383500000000001
aF0.0102373
aF0.0061151299999999999
aF0.00021492000000000001
aF0.0251667
aaa(lp12
(S'3'
S'4'
S'2'
tp13
a(lp14
a(lp15
F0.056730000000000003
aF0.050340700000000002
aF0.053867199999999997
aF0.051807899999999997
aF0.043798299999999998
aF0.045598699999999999
aF0.06258727
aF0.048835200000000002
aF0.037894900000000002
aF0.0442636
aF0.036033799999999998
aF0.047170700000000003
aF0.048150220000000001
aF0.053856399999999999
aF0.040422199999999998
aF0.042844399999999998
aF0.051186599999999999
aF0.056901639999999996
aF0.048574800000000001
aF0.053895499999999999
aF0.045979100000000002
aF0.053528399999999997
aF0.043178300000000003
aF0.060303799999999998
aF0.050142100000000002
aF0.050545199999999998
aF0.038905000000000002
aF0.0558728
aF0.053724620000000001
aF0.044894900000000001
aF0.050006599999999998
aF0.042926400000000003
aF0.048308499999999997
aF0.041994099999999999
aF0.034358899999999998
aF0.0441234
aF0.047304770000000003
aF0.046214400000000003
aF0.057654400000000001
aF0.059198099999999997
aF0.056513800000000003
aF0.059765699999999998
aF0.0522636
aF0.037003000000000001
aF0.051372899999999999
aF0.060028430000000001
aF0.055163200000000003
aF0.042635800000000001
aF0.049062099999999997
aF0.0532737
aF0.059721299999999998
aF0.055117389999999995
aF0.049200800000000003
aF0.041031400000000003
aF0.043449300000000003
aF0.049612999999999997
aF0.058027999999999996
aF0.063155699999999995
aF0.049084799999999998
aF0.043323899999999999
aF0.049116
aF0.046838299999999999
aF0.0599347
aF0.054494899999999999
aF0.055685199999999997
aF0.049213300000000001
aF0.049097599999999998
aF0.0391986
aF0.049711699999999998
aF0.051059300000000002
aF0.042619299999999999
aF0.038124100000000001
aF0.035326700000000003
aF0.051200599999999999
aF0.063005699999999998
aF0.056783199999999999
aF0.050130899999999999
aF0.043226599999999997
aF0.043017699999999999
aF0.047420900000000002
aF0.050036900000000002
aF0.044991700000000003
aF0.044065500000000001
aF0.0511507
aF0.046017599999999999
aF0.051371699999999999
aF0.041789800000000002
aF0.043372000000000001
aF0.049193850000000004
aF0.041603899999999999
aF0.052212500000000002
aF0.038926000000000002
aF0.033928699999999999
aF0.061536899999999999
aF0.045522399999999998
aF0.056615199999999997
aF0.055504600000000001
aF0.034803899999999999
aF0.041812299999999997
aF0.037570600000000003
aF0.043097900000000001
aF0.044530800000000002
aF0.033303800000000001
aF0.032736599999999998
aF0.039843200000000002
aF0.054235999999999999
aF0.050413300000000001
aF0.054367499999999999
aF0.0480183
aF0.033944599999999998
aF0.048128499999999998
aF0.050170899999999997
aF0.066499000000000003
aF0.049748100000000003
aF0.050777799999999998
aF0.043597200000000003
aF0.056296699999999998
aF0.046336599999999999
aF0.054122499999999997
aF0.049597000000000002
aF0.049717999999999998
aF0.046455799999999998
aF0.053067599999999999
aF0.0380401
aF0.049588100000000003
aF0.051548499999999997
aF0.062311600000000002
aF0.058074599999999997
aF0.050517300000000001
aF0.060491000000000003
aF0.054890000000000001
aF0.0515363
aF0.053158200000000003
aF0.065591300000000005
aF0.058964500000000003
aF0.036435500000000003
aF0.046962900000000002
aF0.073024739999999991
aF0.044506299999999999
aF0.047260000000000003
aF0.052783200000000002
aF0.045391599999999997
aF0.050087
aF0.0544766
aF0.040033800000000001
aF0.047672300000000001
aF0.052882199999999997
aF0.042797799999999997
aF0.064955100000000002
aF0.066095600000000004
aF0.041695000000000003
aF0.045040799999999999
aF0.0450949
aF0.046378929999999999
aF0.043919
aF0.068116200000000002
aF0.046206200000000003
aF0.045454399999999999
aF0.050796599999999997
aF0.041589099999999997
aF0.032444099999999997
aF0.049568800000000003
aF0.057967100000000001
aF0.043948500000000001
aF0.056220600000000003
aF0.057938499999999997
aF0.059841199999999997
aF0.048113700000000002
aF0.047846899999999998
aF0.038926799999999998
aF0.037614099999999998
aF0.043113499999999999
aF0.053893299999999998
aF0.0473202
aF0.036666299999999999
aF0.060546099999999999
aF0.050679599999999998
aF0.054903
aF0.047788400000000002
aF0.055436399999999997
aF0.042365699999999999
aF0.053734200000000003
aF0.0527766
aF0.046488700000000001
aF0.061187199999999997
aF0.045658700000000003
aF0.047263699999999999
aF0.052377000000000007
aF0.058031800000000001
aF0.045655300000000003
aF0.049009200000000003
aF0.062109400000000002
aF0.056955400000000003
aF0.051494600000000001
aF0.047842099999999999
aF0.046704299999999997
aF0.047525299999999999
aF0.0432916
aF0.082870700000000005
aF0.050341199999999996
aF0.0556894
aF0.047348899999999999
aF0.03851164
aF0.048138500000000001
aF0.048492
aF0.054068699999999997
aF0.063840599999999997
aF0.060694999999999999
aF0.0567089
aF0.034782
aF0.055137899999999997
aF0.048445799999999997
aF0.039243300000000002
aF0.053902600000000002
aF0.061508300000000002
aF0.047225099999999999
aF0.0474095
aF0.050871300000000001
aF0.042447199999999997
aF0.033171800000000001
aF0.068053439999999993
aF0.0581126
aF0.048665600000000003
aF0.051847299999999999
aF0.047531900000000002
aF0.049061
aF0.059268599999999998
aF0.050708900000000001
aF0.047950100000000002
aF0.039550099999999998
aF0.034119799999999999
aF0.048852199999999998
aF0.050253870000000006
aF0.037052000000000002
aF0.048521799999999997
aF0.064277200000000007
aF0.039111399999999998
aF0.035715999999999998
aF0.0547109
aF0.063339400000000004
aF0.048448600000000001
aF0.049351800000000001
aF0.062566899999999995
aF0.054426799999999997
aF0.079322400000000001
aF0.0462237
aF0.035560399999999999
aF0.048382790000000002
aF0.063399499999999998
aF0.044525500000000003
aF0.043203699999999998
aF0.036840699999999997
aF0.048696099999999999
aF0.048575
aF0.046363000000000001
aF0.059131299999999998
aF0.049734899999999999
aF0.075881299999999999
aF0.060188899999999997
aF0.0542973
aF0.046058599999999998
aF0.053413099999999998
aF0.053050600000000003
aF0.063889199999999993
aF0.0607795
aF0.069967799999999997
aF0.048793299999999998
aF0.057068800000000003
aF0.058265999999999998
aF0.050102099999999997
aF0.044526900000000001
aF0.0434359
aF0.042865280000000006
aF0.042399899999999997
aF0.055823999999999999
aF0.037745500000000001
aF0.0486474
aF0.067345299999999997
aF0.051843399999999998
aF0.049846099999999997
aF0.049490100000000002
aF0.058360599999999999
aF0.054219299999999998
aF0.054464199999999997
aF0.0397442
aF0.044246099999999997
aF0.040388899999999998
aF0.040967700000000003
aF0.045727400000000001
aF0.056197400000000002
aF0.062630500000000006
aF0.066084900000000002
aF0.078584580000000001
aF0.050789300000000002
aF0.057097099999999998
aF0.041525600000000003
aF0.051350100000000003
aF0.0449045
aF0.038556399999999998
aF0.051936499999999997
aF0.046789299999999999
aF0.052802799999999997
aF0.049935300000000002
aF0.067616599999999999
aF0.0438652
aF0.063771800000000003
aF0.066085699999999997
aF0.045392500000000002
aF0.049981400000000002
aF0.0575957
aF0.045626199999999999
aF0.03701306
aF0.042024899999999997
aF0.054904500000000002
aF0.037674399999999997
aF0.041911999999999998
aF0.053137400000000001
aF0.056965300000000003
aF0.054932599999999998
aF0.059027400000000001
aF0.044181400000000003
aF0.055421699999999997
aF0.047718499999999997
aF0.070483799999999999
aF0.0515602
aF0.048813000000000002
aF0.059720299999999997
aF0.064966200000000002
aF0.043491500000000002
aF0.0441316
aF0.056202799999999997
aF0.035794899999999998
aF0.041520719999999997
aF0.053381499999999998
aF0.053084399999999997
aF0.045507300000000001
aF0.055869299999999997
aF0.052348459999999999
aF0.068735400000000002
aF0.056744299999999998
aF0.053449999999999998
aF0.071826299999999996
aF0.053804900000000003
aF0.043810799999999997
aF0.046049800000000002
aF0.0439598
aF0.042159999999999996
aF0.042311099999999997
aF0.052278900000000003
aF0.055906699999999997
aF0.0608608
aF0.043245199999999998
aF0.058284099999999998
aF0.047786099999999998
aF0.0389643
aF0.044956999999999997
aF0.052807300000000001
aF0.046578759999999997
aF0.0393738
aF0.045824200000000002
aF0.051635
aF0.036405199999999999
aF0.038664400000000002
aF0.067790000000000003
aF0.057048090000000003
aF0.055586799999999999
aF0.043221299999999997
aF0.05583105
aF0.048846500000000001
aF0.047356799999999998
aF0.054247799999999999
aF0.044055400000000002
aF0.071771500000000002
aF0.049015599999999999
aF0.054467399999999999
aF0.0484044
aF0.053852299999999999
aF0.040528700000000001
aF0.048883599999999999
aF0.056405900000000002
aF0.044441500000000002
aF0.044398100000000003
aF0.056016700000000003
aF0.048940200000000003
aF0.052138999999999998
aF0.043849399999999997
aF0.053907799999999999
aF0.056886300000000001
aF0.048154799999999998
aF0.038842799999999997
aF0.066798099999999999
aF0.040138
aF0.047916500000000001
aF0.037148100000000003
aF0.051442500000000002
aF0.059289099999999997
aF0.0494765
aF0.052140899999999997
aF0.047315099999999999
aF0.039155099999999998
aF0.045389600000000002
aF0.039324600000000001
aF0.048908
aF0.048920400000000003
aF0.063872200000000004
aF0.0466151
aF0.0530792
aF0.039707100000000002
aF0.049252799999999999
aF0.072084099999999998
aF0.054615799999999999
aF0.046193100000000001
aF0.041845599999999997
aF0.038089900000000003
aF0.044387799999999998
aF0.060787040000000001
aF0.053990999999999997
aF0.048685899999999997
aF0.057141999999999998
aF0.051658999999999997
aF0.050337300000000001
aF0.045046900000000001
aF0.047434299999999999
aF0.060014999999999999
aF0.057318399999999999
aF0.065858299999999995
aF0.051205199999999999
aF0.060146499999999999
aF0.061024399999999999
aF0.047717900000000001
aF0.047779500000000003
aF0.064472299999999996
aF0.049431620000000003
aF0.050145500000000003
aF0.070004899999999995
aF0.049197499999999998
aF0.0536067
aF0.051438600000000001
aF0.0405446
aF0.045844099999999999
aF0.071575
aF0.052594399999999999
aF0.048277399999999998
aF0.057565499999999999
aF0.042948800000000002
aF0.041680599999999998
aF0.0409495
aF0.061934599999999999
aF0.054602900000000003
aF0.038588699999999997
aF0.049774800000000001
aF0.049901000000000001
aF0.056506000000000001
aF0.038870300000000003
aF0.055493000000000001
aF0.055055899999999998
aF0.057018300000000001
aF0.051802099999999997
aF0.044350399999999998
aF0.041921100000000003
aF0.046220400000000002
aF0.0400562
aF0.044461100000000003
aF0.052679400000000001
aF0.054566000000000003
aF0.0373871
aF0.061053999999999997
aF0.040467299999999998
aF0.045899599999999999
aF0.056383299999999997
aF0.047236399999999998
aF0.045943900000000003
aF0.051440300000000001
aF0.045634000000000001
aF0.077517500000000003
aF0.057636300000000001
aF0.065709500000000004
aF0.050816500000000001
aF0.056279999999999997
aF0.037258399999999997
aF0.053873999999999998
aF0.058656600000000003
aF0.050892300000000001
aF0.056629199999999998
aF0.047385400000000001
aF0.060988300000000002
aF0.055744099999999998
aF0.040071599999999999
aF0.053733799999999998
aF0.049472599999999999
aF0.041836600000000002
aF0.0571177
aF0.042136100000000003
aF0.048023000000000003
aF0.051939600000000002
aF0.042905699999999998
aF0.046900699999999997
aF0.043017100000000003
aF0.048899400000000003
aF0.068594290000000002
aF0.057006399999999999
aF0.054291300000000001
aF0.052469000000000002
aF0.048357999999999998
aF0.056075600000000003
aF0.047252299999999997
aF0.049594600000000003
aF0.059767099999999997
aF0.04242377
aF0.051559500000000001
aF0.047678600000000002
aF0.047477499999999999
aF0.038199499999999997
aF0.056275699999999998
aF0.052563400000000003
aF0.0328981
aF0.043905100000000002
aF0.039861899999999999
aF0.062818700000000005
aF0.045695100000000002
aF0.046419700000000001
aF0.062343500000000003
aF0.051486299999999999
aF0.068348999999999993
aF0.0580349
aF0.040441600000000001
aF0.058151300000000003
aF0.043389299999999999
aF0.067774200000000007
aF0.0570395
aF0.054829799999999998
aF0.057894399999999999
aF0.052742299999999999
aF0.050803599999999997
aF0.059359000000000002
aF0.044465200000000003
aF0.048217500000000003
aF0.052893999999999997
aF0.048926699999999997
aF0.038630900000000003
aF0.051402299999999998
aF0.054786500000000002
aF0.053731599999999997
aF0.028253899999999998
aF0.042007200000000001
aF0.044523199999999999
aF0.0484032
aF0.055304899999999997
aF0.041659450000000001
aF0.039839399999999997
aF0.056230099999999998
aF0.038793500000000002
aF0.054601400000000001
aF0.040340500000000001
aF0.0601545
aF0.045464600000000001
aF0.056490400000000003
aF0.0466255
aF0.053369299999999995
aF0.050686500000000002
aF0.066914000000000001
aF0.054384500000000002
aF0.052424999999999999
aF0.043777799999999999
aF0.057923000000000002
aF0.060755999999999998
aF0.0470801
aF0.045094200000000001
aF0.052251199999999998
aF0.041008599999999999
aF0.044992999999999998
aF0.053099599999999997
aF0.046960200000000001
aF0.0495127
aF0.054424699999999999
aF0.064238799999999999
aF0.055792399999999999
aF0.052819199999999997
aF0.041609100000000003
aF0.049481999999999998
aF0.078476500000000005
aF0.048449800000000001
aF0.043729799999999999
aF0.072262999999999994
aF0.051134699999999998
aF0.046700400000000003
aF0.057344100000000002
aF0.048859300000000001
aF0.057925499999999998
aF0.039865699999999997
aF0.040067899999999997
aF0.057632700000000002
aF0.053021749999999999
aF0.050212
aF0.034789199999999999
aF0.044156179999999996
aF0.053412000000000001
aF0.053767080000000002
aF0.043925499999999999
aF0.057911900000000002
aF0.064996300000000007
aF0.051562299999999998
aF0.064673999999999995
aF0.050171800000000003
aF0.047226200000000003
aF0.047104199999999999
aF0.043487699999999997
aF0.04445698
aF0.043158000000000002
aF0.045173499999999998
aF0.053768099999999999
aF0.047974299999999998
aF0.047473399999999999
aF0.046894400000000003
aF0.038603499999999999
aF0.059993200000000003
aF0.042498500000000002
aF0.048056300000000003
aF0.047473799999999997
aF0.048422100000000003
aF0.053277199999999997
aF0.049854500000000003
aF0.064562999999999995
aF0.043273699999999998
aF0.038105399999999998
aF0.052368400000000002
aF0.052434900000000007
aF0.040774499999999998
aF0.047970100000000002
aF0.045847300000000001
aF0.040812899999999999
aF0.036939199999999998
aF0.0410214
aF0.045608599999999999
aF0.047939299999999997
aF0.050562599999999999
aF0.095016100000000006
aF0.044215400000000002
aF0.048324899999999997
aF0.049791200000000001
aF0.048919600000000001
aF0.044593599999999997
aF0.051168699999999998
aF0.047219900000000002
aF0.074415400000000007
aF0.048495900000000002
aF0.055430699999999999
aF0.058360299999999997
aF0.045891500000000002
aF0.044062999999999998
aF0.065459000000000003
aF0.054885799999999998
aF0.053219000000000002
aF0.054486199999999999
aF0.0431823
aF0.048167000000000001
aF0.046358000000000003
aF0.045053999999999997
aF0.046122999999999997
aF0.035069299999999998
aF0.054207999999999999
aF0.045737100000000003
aF0.054933599999999999
aF0.0539081
aF0.046077899999999998
aF0.071162299999999998
aF0.035269099999999998
aF0.053626300000000002
aF0.048895099999999997
aF0.038603999999999999
aF0.042849600000000002
aF0.040203200000000001
aF0.03601
aF0.046329099999999998
aF0.062470100000000001
aF0.068403900000000004
aF0.043460100000000002
aF0.053280300000000003
aF0.044338299999999997
aF0.045720400000000001
aF0.0294734
aF0.054457899999999997
aF0.054006699999999998
aF0.056140299999999997
aF0.077272199999999999
aF0.042227300000000002
aF0.052194299999999999
aF0.0362385
aF0.049444299999999997
aF0.039039200000000003
aF0.0297708
aF0.062621399999999994
aF0.060514600000000002
aF0.067374400000000001
aF0.055395800000000002
aF0.0453782
aF0.072582900000000006
aF0.053948700000000002
aF0.074447799999999995
aF0.058305900000000001
aF0.044360700000000003
aF0.052939100000000003
aF0.050303470000000003
aF0.0525196
aF0.045064899999999998
aF0.052456700000000002
aF0.043553080000000001
aF0.046864200000000002
aF0.049133999999999997
aF0.061441000000000003
aF0.050956000000000001
aF0.0455599
aF0.067629999999999996
aF0.064874000000000001
aF0.043906399999999998
aF0.045754200000000002
aF0.043114
aF0.043619699999999997
aF0.045075400000000002
aF0.050968800000000002
aF0.046188100000000003
aF0.0490658
aF0.053541600000000002
aF0.038290600000000001
aF0.049646799999999998
aF0.049804399999999999
aF0.041800900000000002
aF0.039422100000000002
aF0.046846100000000002
aF0.057092200000000003
aF0.042035599999999999
aF0.0452351
aF0.050235500000000002
aF0.049324100000000003
aF0.047207100000000002
aF0.051373299999999997
aF0.059986900000000003
aF0.051203100000000001
aF0.0462078
aF0.039704200000000002
aF0.047406200000000003
aF0.049142900000000003
aF0.062067900000000002
aF0.059437700000000003
aF0.048418599999999999
aF0.051491799999999997
aF0.046194800000000001
aF0.0498539
aF0.050764999999999998
aF0.052676800000000003
aF0.047779299999999997
aF0.046625100000000003
aF0.050116399999999998
aF0.033247899999999997
aF0.053995399999999999
aF0.075133599999999995
aF0.051083400000000001
aF0.046889399999999998
aF0.043997310000000005
aF0.065816700000000006
aF0.048604700000000001
aF0.042532
aF0.0395357
aF0.057275899999999998
aF0.058803800000000003
aF0.046376290000000001
aF0.053355
aF0.041882599999999999
aF0.051265379999999999
aF0.049501299999999998
aF0.051473600000000001
aF0.051956500000000003
aF0.044764100000000001
aF0.043866700000000002
aF0.043810000000000002
aF0.063490199999999997
aF0.053858499999999997
aF0.049017999999999999
aF0.048643800000000001
aF0.042784299999999997
aF0.043637099999999998
aF0.038247799999999998
aF0.046296900000000002
aF0.036689800000000002
aF0.046218500000000003
aF0.064035999999999996
aF0.043529699999999998
aF0.065160200000000001
aF0.044548499999999998
aF0.033922599999999997
aF0.047240400000000002
aF0.060179000000000003
aF0.0450423
aF0.042084999999999997
aF0.047858199999999997
aF0.046242100000000001
aF0.055676900000000001
aF0.049491599999999997
aF0.053621500000000002
aF0.046314599999999997
aF0.053415700000000003
aF0.044137500000000003
aF0.056033899999999998
aF0.057027599999999998
aF0.065299499999999996
aF0.047410899999999999
aF0.0444822
aF0.041159099999999997
aF0.0542809
aF0.0512682
aF0.056156900000000003
aF0.044698599999999998
aF0.051347999999999998
aF0.041972299999999997
aF0.042755399999999999
aF0.066989599999999996
aF0.0531926
aF0.041346399999999998
aF0.048955800000000001
aF0.053287500000000002
aF0.052471900000000002
aF0.050339399999999999
aF0.051305499999999997
aF0.044049100000000001
aF0.040447999999999998
aF0.059270900000000001
aF0.044949500000000003
aF0.033008999999999997
aF0.049860009999999996
aF0.036906899999999999
aF0.047066299999999998
aF0.052427500000000002
aF0.050070000000000003
aF0.046194499999999999
aF0.031477900000000003
aF0.043377600000000002
aF0.046219499999999997
aF0.0466969
aF0.051444400000000001
aF0.050436599999999998
aF0.057198199999999998
aF0.047044900000000001
aF0.050550299999999999
aF0.069995500000000002
aF0.0455507
aF0.059853700000000003
aF0.061184299999999997
aF0.045396499999999999
aF0.051345399999999999
aF0.0477671
aF0.046781499999999997
aF0.054129499999999997
aF0.056240800000000001
aF0.043861400000000002
aF0.051027000000000003
aF0.050424200000000002
aF0.040624399999999998
aF0.028339799999999998
aF0.039578099999999998
aF0.037884099999999997
aF0.072873999999999994
aF0.059550499999999999
aF0.053289499999999997
aF0.0480417
aF0.067726900000000007
aF0.053726599999999999
aF0.047284670000000001
aF0.046684200000000002
aF0.051719899999999999
aF0.050105200000000003
aF0.044558899999999999
aF0.057830699999999999
aF0.040636199999999997
aF0.048348200000000001
aF0.043139700000000003
aF0.055316799999999999
aF0.046147399999999998
aF0.0675148
aF0.065370289999999998
aF0.045636099999999999
aF0.038990999999999998
aF0.0542312
aF0.053228600000000001
aF0.046474799999999997
aF0.049177700000000005
aF0.059975100000000003
aF0.049716799999999998
aF0.043211399999999997
aF0.040095899999999997
aF0.043586699999999999
aF0.043848199999999997
aF0.050157100000000003
aF0.043285400000000002
aF0.063723000000000002
aF0.053038399999999999
aF0.053057199999999999
aF0.047623499999999999
aF0.068902599999999994
aF0.047279700000000001
aF0.046003000000000002
aF0.058080600000000003
aF0.049551569999999996
aF0.040825800000000002
aF0.045535899999999997
aF0.055792399999999999
aF0.056548399999999999
aF0.045487199999999998
aF0.046402699999999998
aF0.043282399999999999
aF0.045514300000000001
aF0.055425299999999997
aF0.051812400000000002
aF0.046176799999999997
aF0.047291800000000002
aF0.047592700000000002
aF0.0576657
aF0.051296799999999997
aF0.055676900000000001
aF0.051261800000000003
aF0.049324399999999997
aF0.045317400000000001
aF0.0318429
aF0.062411000000000001
aF0.067246200000000006
aF0.052669300000000002
aF0.044853900000000002
aF0.0545164
aF0.065888600000000005
aF0.045454300000000003
aF0.035512700000000001
aF0.058734799999999997
aF0.046639399999999998
aF0.055955400000000002
aF0.055821999999999997
aF0.048499599999999997
aF0.055238900000000001
aF0.049321400000000001
aF0.050793499999999998
aF0.047999300000000002
aF0.048413299999999999
aF0.046935600000000001
aF0.050692899999999999
aF0.060458770000000002
aF0.047361399999999998
aF0.062174310000000003
aF0.053236699999999998
aF0.0456055
aF0.047217999999999996
aF0.070510500000000004
aF0.051666999999999998
aF0.074259699999999998
aF0.043944400000000002
aF0.045202300000000001
aF0.0508621
aF0.053512999999999998
aF0.0477794
aF0.0523951
aF0.043302500000000001
aF0.049479000000000002
aF0.053088499999999997
aF0.043018599999999997
aF0.046248900000000003
aF0.065532999999999994
aF0.041623800000000002
aF0.049126999999999997
aF0.037317400000000001
aF0.056673800000000003
aF0.049988299999999999
aF0.0555031
aF0.0446328
aF0.045577800000000002
aF0.0473552
aF0.053672299999999999
aF0.065358299999999994
aF0.0496616
aF0.0831567
aF0.043465700000000003
aF0.051158799999999997
aF0.046271699999999999
aF0.042907099999999997
aF0.049414100000000002
aF0.054886499999999998
aF0.0543335
aF0.055738389999999999
aF0.055640299999999997
aF0.058253100000000002
aF0.065387700000000007
aF0.044437999999999998
aF0.051550199999999997
aF0.053171000000000003
aF0.053957699999999997
aF0.055686300000000001
aF0.042268899999999998
aF0.057246499999999999
aF0.049955100000000002
aF0.065589900000000007
aF0.047655599999999999
aF0.043333400000000001
aF0.039801200000000002
aF0.059502199999999998
aa(lp16
aa(lp17
(S'1'
S'4'
S'2'
tp18
a(lp19
a(lp20
F0.056730000000000003
aF0.060052790000000002
aF0.063728659999999993
aF0.062472599999999996
aF0.045558999999999995
aF0.057813699999999996
aF0.061813199999999999
aF0.064486100000000005
aF0.037894900000000002
aF0.090533500000000003
aF0.044257899999999996
aF0.047170700000000003
aF0.048142499999999998
aF0.061012940000000002
aF0.040422199999999998
aF0.042844399999999998
aF0.063845100000000002
aF0.049922399999999999
aF0.067063399999999995
aF0.053895499999999999
aF0.045979100000000002
aF0.05765112
aF0.061796100000000007
aF0.060303799999999998
aF0.054453250000000002
aF0.050545199999999998
aF0.064113900000000001
aF0.066913600000000004
aF0.053091699999999999
aF0.044894900000000001
aF0.064398399999999995
aF0.060309200000000007
aF0.051723269999999995
aF0.046762489999999997
aF0.037850369999999994
aF0.051189699999999998
aF0.0471086
aF0.050684730000000004
aF0.072849700000000003
aF0.059198099999999997
aF0.056513800000000003
aF0.059765699999999998
aF0.067688200000000004
aF0.077329700000000001
aF0.062189899999999999
aF0.057754899999999998
aF0.070290100000000008
aF0.052723300000000001
aF0.052707299999999999
aF0.055663959999999998
aF0.062580189999999994
aF0.053453599999999997
aF0.052972560000000002
aF0.061966400000000005
aF0.043449300000000003
aF0.051737809999999995
aF0.043860299999999998
aF0.063155699999999995
aF0.049084799999999998
aF0.050103849999999998
aF0.062244800000000003
aF0.05496301
aF0.059934889999999998
aF0.069211499999999995
aF0.07022719999999999
aF0.05249997
aF0.071318800000000002
aF0.043903930000000001
aF0.059888699999999996
aF0.051059300000000002
aF0.052835899999999998
aF0.073675700000000011
aF0.035326700000000003
aF0.051200599999999999
aF0.063005699999999998
aF0.075009999999999993
aF0.050130899999999999
aF0.043226599999999997
aF0.053111899999999997
aF0.047420900000000002
aF0.05792332
aF0.044991700000000003
aF0.044065500000000001
aF0.0511507
aF0.058857300000000001
aF0.054780019999999999
aF0.049956840000000002
aF0.043372000000000001
aF0.047668000000000002
aF0.044027980000000001
aF0.067549899999999996
aF0.056655700000000003
aF0.044211500000000001
aF0.071401739999999991
aF0.045522399999999998
aF0.061812139999999995
aF0.069144700000000003
aF0.054753299999999998
aF0.054939699999999994
aF0.048482500000000005
aF0.0621296
aF0.057238000000000004
aF0.045558800000000003
aF0.047460799999999997
aF0.067598500000000006
aF0.054235999999999999
aF0.066338599999999998
aF0.054367499999999999
aF0.058978500000000003
aF0.054835499999999995
aF0.05354598
aF0.069239899999999993
aF0.0707676
aF0.049748100000000003
aF0.050777799999999998
aF0.043597200000000003
aF0.056296699999999998
aF0.047719789999999998
aF0.079394199999999998
aF0.067345199999999994
aF0.059888200000000003
aF0.047543129999999996
aF0.053067599999999999
aF0.0380401
aF0.049588100000000003
aF0.062119499999999994
aF0.062311600000000002
aF0.058075189999999999
aF0.052379780000000001
aF0.073251900000000009
aF0.054890000000000001
aF0.067151100000000005
aF0.051884300000000001
aF0.076333499999999999
aF0.063129630000000006
aF0.036435500000000003
aF0.061906799999999998
aF0.065495399999999995
aF0.047771999999999995
aF0.047260000000000003
aF0.052783200000000002
aF0.045509089999999995
aF0.063692799999999994
aF0.042794699999999998
aF0.040033800000000001
aF0.055414720000000001
aF0.067694000000000004
aF0.042797799999999997
aF0.064955100000000002
aF0.075886950000000009
aF0.041695000000000003
aF0.045040799999999999
aF0.0450949
aF0.043676
aF0.046033169999999998
aF0.070303589999999999
aF0.054488500000000002
aF0.045454399999999999
aF0.069770699999999991
aF0.042983929999999997
aF0.032444099999999997
aF0.056108970000000001
aF0.045488399999999998
aF0.052099060000000003
aF0.067589400000000008
aF0.071955699999999997
aF0.063374379999999994
aF0.048113700000000002
aF0.063602999999999993
aF0.051049600000000001
aF0.037614099999999998
aF0.053952899999999998
aF0.053893299999999998
aF0.050591270000000001
aF0.047707399999999997
aF0.060546099999999999
aF0.050679599999999998
aF0.054903
aF0.047788400000000002
aF0.055436399999999997
aF0.042365699999999999
aF0.062175279999999999
aF0.0527766
aF0.046488700000000001
aF0.067965890000000001
aF0.059932100000000002
aF0.0801819
aF0.040975200000000003
aF0.058031800000000001
aF0.047927590000000006
aF0.05401918
aF0.068885849999999998
aF0.062633250000000001
aF0.069122700000000009
aF0.047842099999999999
aF0.051722109999999995
aF0.049055790000000002
aF0.0432916
aF0.085361619999999999
aF0.049805599999999998
aF0.043784299999999998
aF0.061147199999999999
aF0.036487699999999998
aF0.078048400000000004
aF0.050418299999999999
aF0.054068699999999997
aF0.066783109999999993
aF0.074801300000000001
aF0.0567089
aF0.048621200000000003
aF0.066245699999999991
aF0.056417449999999994
aF0.039243300000000002
aF0.053902600000000002
aF0.066038050000000001
aF0.047225099999999999
aF0.05547324
aF0.050871300000000001
aF0.042447199999999997
aF0.0478523
aF0.063139799999999996
aF0.061059769999999999
aF0.054285730000000004
aF0.054013449999999998
aF0.047531900000000002
aF0.064909099999999997
aF0.06649774
aF0.051588910000000002
aF0.047950100000000002
aF0.06454109999999999
aF0.034119799999999999
aF0.054195159999999999
aF0.050120900000000003
aF0.060704900000000006
aF0.048521799999999997
aF0.075430800000000006
aF0.039111399999999998
aF0.078991000000000006
aF0.055920009999999999
aF0.076925099999999996
aF0.048448600000000001
aF0.049351800000000001
aF0.062566899999999995
aF0.054426799999999997
aF0.094164499999999998
aF0.049905419999999999
aF0.067105999999999999
aF0.046770100000000002
aF0.077193799999999993
aF0.062843700000000002
aF0.050077459999999997
aF0.064802699999999991
aF0.048696099999999999
aF0.052791329999999997
aF0.0608367
aF0.059131299999999998
aF0.049734899999999999
aF0.084800199999999992
aF0.068556279999999997
aF0.060717769999999997
aF0.055963590000000001
aF0.053413099999999998
aF0.056485810000000004
aF0.071072329999999989
aF0.0607795
aF0.073049439999999993
aF0.059200199999999994
aF0.071197900000000008
aF0.058265999999999998
aF0.050102099999999997
aF0.061411599999999997
aF0.05113616
aF0.039459300000000003
aF0.043505619999999995
aF0.067922499999999997
aF0.064824400000000004
aF0.052158660000000003
aF0.072447120000000004
aF0.051843399999999998
aF0.049846099999999997
aF0.062903600000000004
aF0.058360599999999999
aF0.054219299999999998
aF0.067927199999999993
aF0.0397442
aF0.044246099999999997
aF0.049616090000000002
aF0.040967700000000003
aF0.045727400000000001
aF0.056197400000000002
aF0.067342070000000004
aF0.087864899999999996
aF0.078583899999999998
aF0.068191399999999999
aF0.058087699999999999
aF0.047598470000000004
aF0.071041500000000007
aF0.0449045
aF0.049108499999999999
aF0.056275159999999998
aF0.064516199999999996
aF0.052802799999999997
aF0.059409509999999999
aF0.067616599999999999
aF0.048188929999999998
aF0.077052099999999998
aF0.078435299999999999
aF0.074648199999999998
aF0.052284520000000001
aF0.065599390000000007
aF0.045626199999999999
aF0.029362599999999999
aF0.042024899999999997
aF0.054904500000000002
aF0.037674399999999997
aF0.061131699999999997
aF0.072563199999999994
aF0.056965300000000003
aF0.059262339999999997
aF0.063417639999999997
aF0.053273930000000004
aF0.060176750000000001
aF0.051120359999999997
aF0.078812809999999997
aF0.058525309999999997
aF0.053734040000000004
aF0.059720299999999997
aF0.064966200000000002
aF0.061195200000000005
aF0.045560499999999997
aF0.056202799999999997
aF0.048772699999999995
aF0.036030199999999998
aF0.053381499999999998
aF0.061208129999999999
aF0.045507300000000001
aF0.055869299999999997
aF0.051001400000000002
aF0.068735400000000002
aF0.059072069999999997
aF0.053449999999999998
aF0.074401159999999994
aF0.043050900000000003
aF0.056964399999999998
aF0.052024600000000004
aF0.0439598
aF0.042158599999999997
aF0.053143200000000002
aF0.052278900000000003
aF0.055906699999999997
aF0.0608608
aF0.066166199999999994
aF0.070942699999999997
aF0.049700469999999997
aF0.052612400000000004
aF0.044956999999999997
aF0.052807300000000001
aF0.046449799999999999
aF0.045880129999999998
aF0.045824200000000002
aF0.051635
aF0.073345899999999992
aF0.076617299999999999
aF0.071863820000000009
aF0.053911300000000002
aF0.069070400000000004
aF0.054205699999999996
aF0.053638499999999999
aF0.050962790000000001
aF0.04843107
aF0.054247799999999999
aF0.044055400000000002
aF0.071771500000000002
aF0.055943319999999998
aF0.054467399999999999
aF0.059892500000000001
aF0.058678750000000002
aF0.077498399999999995
aF0.048883599999999999
aF0.0762906
aF0.0489449
aF0.058324400000000005
aF0.059962080000000001
aF0.048940200000000003
aF0.052138999999999998
aF0.067628999999999995
aF0.054070399999999998
aF0.056886300000000001
aF0.062699400000000002
aF0.038842799999999997
aF0.071208750000000001
aF0.057227699999999999
aF0.047916500000000001
aF0.052912899999999999
aF0.065094700000000005
aF0.059289099999999997
aF0.0494765
aF0.05825412
aF0.047315099999999999
aF0.057276099999999996
aF0.050682440000000002
aF0.053028600000000002
aF0.048908
aF0.063004699999999997
aF0.063872200000000004
aF0.051370899999999997
aF0.067879599999999998
aF0.0480265
aF0.049252799999999999
aF0.084859400000000001
aF0.054615799999999999
aF0.05042025
aF0.052143699999999994
aF0.049285000000000002
aF0.044387799999999998
aF0.0508995
aF0.060199030000000001
aF0.048685899999999997
aF0.066978960000000004
aF0.060402849999999994
aF0.058037499999999999
aF0.045046900000000001
aF0.058860299999999997
aF0.072083399999999992
aF0.057318399999999999
aF0.065858299999999995
aF0.051205199999999999
aF0.060146499999999999
aF0.061024399999999999
aF0.070808800000000005
aF0.047779500000000003
aF0.072214050000000002
aF0.0494314
aF0.051935370000000002
aF0.07511662999999999
aF0.049197499999999998
aF0.0536067
aF0.051438600000000001
aF0.0405446
aF0.051162069999999997
aF0.083415299999999998
aF0.052594399999999999
aF0.061147999999999994
aF0.063310320000000003
aF0.061087100000000005
aF0.061358299999999998
aF0.063487700000000008
aF0.076494599999999996
aF0.058286150000000002
aF0.053803099999999993
aF0.059427790000000001
aF0.055967219999999998
aF0.040449699999999998
aF0.038870300000000003
aF0.064719399999999996
aF0.055055899999999998
aF0.057018300000000001
aF0.0674043
aF0.044350399999999998
aF0.055116400000000003
aF0.053902990000000005
aF0.0400562
aF0.044461100000000003
aF0.052679400000000001
aF0.069459300000000002
aF0.0373871
aF0.061053999999999997
aF0.045625059999999995
aF0.045899599999999999
aF0.056383299999999997
aF0.065164299999999994
aF0.050980230000000001
aF0.051440300000000001
aF0.060974199999999999
aF0.081477110000000005
aF0.065831299999999995
aF0.079731900000000008
aF0.050816500000000001
aF0.059868229999999995
aF0.037258399999999997
aF0.064056199999999994
aF0.058656600000000003
aF0.063807799999999998
aF0.063863160000000002
aF0.064855800000000005
aF0.060988300000000002
aF0.055744099999999998
aF0.040071599999999999
aF0.067912699999999993
aF0.055640589999999997
aF0.079746999999999998
aF0.063808530000000002
aF0.043417900000000002
aF0.052573510000000004
aF0.059726590000000003
aF0.064595799999999995
aF0.046900699999999997
aF0.04984392
aF0.052041219999999999
aF0.067855899999999997
aF0.066780220000000001
aF0.064586000000000005
aF0.052469000000000002
aF0.072699
aF0.056075600000000003
aF0.047252299999999997
aF0.049594600000000003
aF0.059767099999999997
aF0.042423700000000002
aF0.052274350000000004
aF0.071730000000000002
aF0.047477499999999999
aF0.045472869999999999
aF0.061666029999999997
aF0.066417500000000004
aF0.0328981
aF0.057532200000000006
aF0.043450789999999996
aF0.079812099999999997
aF0.054854310000000003
aF0.066118300000000005
aF0.068691490000000008
aF0.051486299999999999
aF0.081133499999999997
aF0.067674499999999999
aF0.065816399999999997
aF0.058151300000000003
aF0.050252109999999996
aF0.067774200000000007
aF0.062444819999999998
aF0.054829799999999998
aF0.082459000000000005
aF0.063553799999999994
aF0.055417540000000001
aF0.061919340000000003
aF0.053673170000000006
aF0.055075650000000004
aF0.052893999999999997
aF0.052307089999999994
aF0.046533810000000002
aF0.051402299999999998
aF0.075170399999999998
aF0.057035369999999995
aF0.057026999999999994
aF0.042007200000000001
aF0.066413299999999995
aF0.059347299999999999
aF0.060284919999999999
aF0.040656600000000001
aF0.050085299999999999
aF0.059350929999999996
aF0.051992000000000003
aF0.062565239999999994
aF0.059195400000000002
aF0.070890900000000007
aF0.0574128
aF0.066422260000000011
aF0.060837599999999999
aF0.041514799999999998
aF0.078628000000000003
aF0.066914000000000001
aF0.061285220000000001
aF0.061427879999999997
aF0.043777799999999999
aF0.057923000000000002
aF0.075861999999999999
aF0.051799440000000002
aF0.047273030000000001
aF0.068499199999999996
aF0.041008599999999999
aF0.044992999999999998
aF0.053099599999999997
aF0.046960200000000001
aF0.055917960000000003
aF0.054424699999999999
aF0.064238799999999999
aF0.06547857
aF0.058251489999999996
aF0.053526900000000002
aF0.053351669999999997
aF0.085772580000000001
aF0.048449800000000001
aF0.052905720000000003
aF0.083332199999999995
aF0.056662230000000001
aF0.052850650000000006
aF0.057344100000000002
aF0.059780899999999998
aF0.057925499999999998
aF0.063944799999999996
aF0.040067899999999997
aF0.061327840000000002
aF0.046385599999999999
aF0.050212
aF0.034789199999999999
aF0.042623899999999999
aF0.060945630000000001
aF0.053767000000000002
aF0.048745379999999998
aF0.057911900000000002
aF0.064996300000000007
aF0.054958179999999995
aF0.068976409999999988
aF0.063135999999999998
aF0.047226200000000003
aF0.047104199999999999
aF0.043487699999999997
aF0.044456900000000001
aF0.048341660000000002
aF0.048987299999999998
aF0.064609100000000003
aF0.053453589999999995
aF0.061946099999999997
aF0.056140710000000003
aF0.059394099999999998
aF0.068211620000000001
aF0.056862099999999999
aF0.062835700000000008
aF0.058673099999999999
aF0.05721296
aF0.053277199999999997
aF0.049854500000000003
aF0.065707309999999991
aF0.043273699999999998
aF0.045797449999999996
aF0.052368400000000002
aF0.030356500000000002
aF0.040774499999999998
aF0.069665000000000005
aF0.045847300000000001
aF0.065322599999999995
aF0.036939199999999998
aF0.055158100000000002
aF0.051080309999999997
aF0.047939299999999997
aF0.066053699999999993
aF0.11031750000000001
aF0.046112060000000003
aF0.048324899999999997
aF0.049791200000000001
aF0.054302759999999999
aF0.06326989999999999
aF0.051168699999999998
aF0.057026730000000005
aF0.093510800000000005
aF0.063124200000000005
aF0.069336499999999995
aF0.063417210000000002
aF0.072269100000000003
aF0.0631274
aF0.068485749999999998
aF0.054885799999999998
aF0.076667900000000011
aF0.064119540000000003
aF0.046633819999999999
aF0.051259360000000004
aF0.046358000000000003
aF0.059846399999999994
aF0.046122999999999997
aF0.035069299999999998
aF0.080147799999999991
aF0.045737100000000003
aF0.059189890000000002
aF0.044279399999999997
aF0.046077899999999998
aF0.071162299999999998
aF0.073740100000000003
aF0.053626300000000002
aF0.048895099999999997
aF0.045385759999999997
aF0.05283848
aF0.056519700000000006
aF0.040341540000000002
aF0.046329099999999998
aF0.062785049999999995
aF0.068403900000000004
aF0.043460100000000002
aF0.053280300000000003
aF0.057901799999999996
aF0.064660899999999993
aF0.036783570000000002
aF0.054457899999999997
aF0.054006699999999998
aF0.069454299999999997
aF0.080676090000000006
aF0.0542751
aF0.066561800000000004
aF0.0594393
aF0.058526559999999998
aF0.040516630000000005
aF0.084560400000000008
aF0.071537799999999999
aF0.075349799999999995
aF0.078475000000000003
aF0.065335100000000007
aF0.0453782
aF0.07995273
aF0.05637752
aF0.074447799999999995
aF0.069295400000000007
aF0.044360700000000003
aF0.060248400000000001
aF0.0414898
aF0.0683285
aF0.045064899999999998
aF0.055572160000000002
aF0.035836
aF0.046864200000000002
aF0.073830800000000002
aF0.061441000000000003
aF0.050956000000000001
aF0.057644399999999998
aF0.067629999999999996
aF0.046275499999999997
aF0.057938499999999997
aF0.059012500000000002
aF0.043114
aF0.052990969999999998
aF0.046997299999999999
aF0.0616762
aF0.053268380000000004
aF0.05576159
aF0.058180450000000002
aF0.073964699999999994
aF0.05409858
aF0.049804399999999999
aF0.041800900000000002
aF0.051023300000000001
aF0.05305733
aF0.065970310000000004
aF0.05141196
aF0.062412499999999996
aF0.057292500000000003
aF0.055309920000000005
aF0.047207100000000002
aF0.056391079999999996
aF0.068004780000000001
aF0.063095899999999996
aF0.049190200000000003
aF0.043147129999999999
aF0.047406200000000003
aF0.056586170000000005
aF0.062067900000000002
aF0.059437700000000003
aF0.057086829999999998
aF0.055543049999999997
aF0.046194800000000001
aF0.055581930000000002
aF0.050764999999999998
aF0.061507900000000004
aF0.070059999999999997
aF0.056903300000000004
aF0.05924186
aF0.033247899999999997
aF0.053995399999999999
aF0.075133599999999995
aF0.059173190000000001
aF0.046889399999999998
aF0.043848900000000003
aF0.073088200000000006
aF0.049592459999999998
aF0.042532
aF0.051842899999999997
aF0.057275899999999998
aF0.065397079999999996
aF0.043214900000000001
aF0.053355319999999998
aF0.058953099999999994
aF0.050292400000000001
aF0.067095299999999997
aF0.067429799999999998
aF0.052905940000000005
aF0.044764100000000001
aF0.054133300000000002
aF0.043810000000000002
aF0.063490339999999992
aF0.065935199999999999
aF0.066880099999999998
aF0.066508299999999992
aF0.055020899999999998
aF0.057869400000000001
aF0.065861699999999995
aF0.061312900000000004
aF0.036689800000000002
aF0.048807550000000005
aF0.065165609999999999
aF0.0561474
aF0.072631390000000004
aF0.054062970000000002
aF0.054174399999999998
aF0.052525100000000005
aF0.071549600000000005
aF0.0450423
aF0.056424499999999995
aF0.055691259999999992
aF0.069937600000000003
aF0.060632989999999998
aF0.061383199999999999
aF0.061453810000000005
aF0.059391699999999999
aF0.057656280000000004
aF0.055406500000000004
aF0.063709939999999993
aF0.070136799999999999
aF0.077216599999999996
aF0.055604769999999998
aF0.0444822
aF0.044429569999999995
aF0.056747020000000002
aF0.076843800000000004
aF0.056156900000000003
aF0.050728629999999997
aF0.058124919999999997
aF0.057623099999999997
aF0.042755399999999999
aF0.076396999999999993
aF0.056607159999999997
aF0.071424199999999993
aF0.048955800000000001
aF0.068325499999999997
aF0.033339000000000001
aF0.054966029999999999
aF0.069195300000000001
aF0.044049100000000001
aF0.054937099999999996
aF0.082398600000000002
aF0.044949500000000003
aF0.053002599999999997
aF0.044876399999999997
aF0.050859399999999999
aF0.055627099999999999
aF0.053226090000000004
aF0.050070000000000003
aF0.055044009999999997
aF0.031477900000000003
aF0.056529700000000002
aF0.053093029999999999
aF0.077575100000000008
aF0.051444400000000001
aF0.057791009999999997
aF0.066806770000000001
aF0.078404500000000002
aF0.064237600000000006
aF0.074689890000000009
aF0.0455507
aF0.059853700000000003
aF0.073476399999999997
aF0.045396659999999998
aF0.060469679999999998
aF0.055189719999999998
aF0.063999500000000001
aF0.063371659999999996
aF0.078735300000000008
aF0.043861400000000002
aF0.064849400000000001
aF0.052484059999999999
aF0.0574799
aF0.028339799999999998
aF0.045876719999999996
aF0.048320999999999996
aF0.078864659999999989
aF0.059550499999999999
aF0.066325999999999996
aF0.063561000000000006
aF0.067726900000000007
aF0.05470444
aF0.043938999999999999
aF0.047690920000000005
aF0.058476479999999997
aF0.062867300000000001
aF0.058785299999999999
aF0.064896120000000002
aF0.042744549999999999
aF0.048348200000000001
aF0.051806830000000005
aF0.055316799999999999
aF0.046147399999999998
aF0.074950009999999997
aF0.059117999999999997
aF0.045636099999999999
aF0.059180399999999994
aF0.0542312
aF0.053228600000000001
aF0.046474799999999997
aF0.048191400000000002
aF0.059975100000000003
aF0.049716799999999998
aF0.045388479999999995
aF0.040095899999999997
aF0.048244269999999999
aF0.075806999999999999
aF0.050157100000000003
aF0.043285400000000002
aF0.090488600000000002
aF0.056264460000000002
aF0.064086500000000005
aF0.047623499999999999
aF0.068902599999999994
aF0.047279700000000001
aF0.046003000000000002
aF0.066452780000000003
aF0.049551499999999998
aF0.059030100000000002
aF0.045535899999999997
aF0.055792399999999999
aF0.064037460000000004
aF0.052762989999999996
aF0.046402699999999998
aF0.049892560000000002
aF0.070687699999999992
aF0.064156240000000003
aF0.051812400000000002
aF0.071213499999999999
aF0.049123060000000003
aF0.068267999999999995
aF0.0576657
aF0.051296799999999997
aF0.065857799999999994
aF0.051261800000000003
aF0.049324399999999997
aF0.045317400000000001
aF0.068487699999999999
aF0.062740230000000008
aF0.067246200000000006
aF0.052669300000000002
aF0.044853900000000002
aF0.071853299999999995
aF0.065888600000000005
aF0.061715100000000002
aF0.040233850000000002
aF0.068023219999999995
aF0.048707709999999994
aF0.063548489999999999
aF0.055821999999999997
aF0.052665519999999993
aF0.073888399999999993
aF0.049321400000000001
aF0.055611870000000001
aF0.060233700000000001
aF0.051822300000000002
aF0.046935600000000001
aF0.05827334
aF0.054708600000000003
aF0.047361399999999998
aF0.054733400000000001
aF0.053236699999999998
aF0.060035900000000003
aF0.044778199999999997
aF0.070510500000000004
aF0.055491829999999999
aF0.077587549999999991
aF0.043944400000000002
aF0.04520238
aF0.060653760000000001
aF0.070812199999999992
aF0.052143040000000002
aF0.064958100000000005
aF0.043302500000000001
aF0.053454740000000001
aF0.053088499999999997
aF0.051743839999999999
aF0.046248900000000003
aF0.074753139999999996
aF0.041623800000000002
aF0.059153799999999999
aF0.037317400000000001
aF0.057275720000000002
aF0.049988299999999999
aF0.0807895
aF0.057469400000000004
aF0.045577800000000002
aF0.0473552
aF0.062496780000000002
aF0.065358299999999994
aF0.069992100000000002
aF0.085141750000000002
aF0.062654500000000002
aF0.051158799999999997
aF0.057949299999999995
aF0.042907099999999997
aF0.062488000000000002
aF0.07192599999999999
aF0.071383500000000003
aF0.047065999999999997
aF0.055640299999999997
aF0.060925750000000001
aF0.065387700000000007
aF0.052176979999999998
aF0.051550199999999997
aF0.053171000000000003
aF0.060988379999999995
aF0.062241049999999999
aF0.046740810000000001
aF0.042727000000000001
aF0.061233500000000003
aF0.097029699999999997
aF0.072311500000000001
aF0.0546991
aF0.039801200000000002
aF0.059502199999999998
aa(lp21
aa.