(lp1
(lp2
(S'2'
S'4'
S'1'
tp3
a(lp4
a(lp5
F0.051651000000000002
aF0.042411480000000001
aF0.068936400000000009
aF0.055037700000000002
aF0.045510200000000001
aF0.06258169999999999
aF0.0417668
aF0.046613799999999997
aF0.030984299999999999
aF0.0678034
aF0.053926799999999997
aF0.052465900000000003
aF0.048669999999999998
aF0.061453309999999997
aF0.046030700000000001
aF0.048098200000000001
aF0.054528500000000001
aF0.050424259999999999
aF0.059658900000000001
aF0.059773100000000003
aF0.05091851
aF0.060601170000000003
aF0.071373800000000001
aF0.0550521
aF0.044557410000000006
aF0.048457
aF0.060609300000000005
aF0.053426509999999997
aF0.057806000000000003
aF0.050257200000000002
aF0.071125900000000006
aF0.042247300000000002
aF0.046596230000000002
aF0.048176359999999994
aF0.054697700000000002
aF0.050125879999999998
aF0.041282800000000001
aF0.058012860000000006
aF0.076334100000000002
aF0.065340899999999993
aF0.050327299999999998
aF0.06341274999999999
aF0.068710300000000002
aF0.055824100000000001
aF0.055455000000000004
aF0.058348860000000002
aF0.075789900000000007
aF0.057009379999999998
aF0.053100470000000004
aF0.052937320000000003
aF0.0681557
aF0.054446599999999998
aF0.055571830000000003
aF0.058843899999999998
aF0.054166600000000002
aF0.066048789999999996
aF0.042585499999999998
aF0.079629500000000006
aF0.0549119
aF0.052149399999999999
aF0.058063219999999999
aF0.049319429999999997
aF0.059066340000000002
aF0.062122949999999996
aF0.063977000000000006
aF0.053897230000000004
aF0.047057000000000002
aF0.05621292
aF0.067854100000000001
aF0.041802400000000003
aF0.056142749999999998
aF0.074338500000000002
aF0.037807
aF0.042848700000000003
aF0.055202500000000002
aF0.074817329999999987
aF0.058919399999999997
aF0.0542056
aF0.055769300000000001
aF0.052681100000000002
aF0.054007799999999995
aF0.047140799999999997
aF0.034733600000000003
aF0.049755800000000003
aF0.073011099999999995
aF0.049496699999999998
aF0.058942209999999995
aF0.046748699999999997
aF0.0492183
aF0.047362099999999997
aF0.083843000000000001
aF0.05240885
aF0.0518862
aF0.059110500000000003
aF0.043501900000000003
aF0.066223199999999996
aF0.05128158
aF0.056043399999999993
aF0.060255900000000001
aF0.047276079999999998
aF0.063974599999999993
aF0.0629715
aF0.055034399999999997
aF0.057679000000000001
aF0.068489399999999992
aF0.035164500000000001
aF0.064586599999999994
aF0.047260700000000003
aF0.059580399999999999
aF0.068906399999999993
aF0.059000379999999998
aF0.054793000000000001
aF0.082938589999999993
aF0.043343300000000001
aF0.050180500000000003
aF0.0401047
aF0.060488199999999999
aF0.051680900000000002
aF0.073222800000000005
aF0.062713279999999996
aF0.068663299999999997
aF0.050536999999999999
aF0.058071699999999997
aF0.055080200000000003
aF0.054495599999999998
aF0.068524139999999997
aF0.048802699999999997
aF0.075049599999999994
aF0.048816369999999998
aF0.082697999999999994
aF0.049268800000000001
aF0.057517769999999996
aF0.049000699999999994
aF0.068965490000000004
aF0.065360539999999995
aF0.040118800000000003
aF0.051580849999999998
aF0.065249699999999994
aF0.041363799999999999
aF0.046412099999999998
aF0.047957100000000003
aF0.047730920000000003
aF0.062684680000000007
aF0.049223200000000002
aF0.044253710000000002
aF0.067572319999999991
aF0.04281571
aF0.040814499999999997
aF0.063159499999999993
aF0.062233459999999997
aF0.042782399999999998
aF0.067824599999999999
aF0.044024599999999997
aF0.049655400000000002
aF0.066432290000000005
aF0.058559800000000002
aF0.075778200000000004
aF0.051457900000000001
aF0.059402199999999995
aF0.050549230000000001
aF0.045141000000000001
aF0.053936900000000003
aF0.043515400000000003
aF0.051992499999999997
aF0.059294699999999999
aF0.072492200000000007
aF0.062302489999999995
aF0.052390220000000001
aF0.062876500000000002
aF0.056034199999999999
aF0.049494799999999999
aF0.061389400000000004
aF0.043496199999999999
aF0.060000999999999999
aF0.059157670000000002
aF0.055533899999999997
aF0.048425799999999998
aF0.056618500000000002
aF0.044002300000000001
aF0.0526521
aF0.038655299999999997
aF0.070049780000000006
aF0.066544300000000001
aF0.043111400000000001
aF0.072941800000000001
aF0.060654899999999998
aF0.062048300000000001
aF0.0255184
aF0.048806200000000001
aF0.059064800000000001
aF0.051961920000000002
aF0.063752400000000001
aF0.05671822
aF0.071550500000000003
aF0.059845799999999998
aF0.061430199999999997
aF0.048708099999999997
aF0.042611669999999997
aF0.082095400000000013
aF0.046788099999999999
aF0.046622799999999999
aF0.061912800000000004
aF0.050574899999999999
aF0.070952600000000005
aF0.047537670000000004
aF0.057764599999999999
aF0.068728499999999998
aF0.0519844
aF0.055955699999999997
aF0.070277199999999998
aF0.069434350000000006
aF0.057515300000000005
aF0.049635199999999997
aF0.05565142
aF0.071483710000000006
aF0.043843899999999998
aF0.069346000000000005
aF0.043745699999999998
aF0.0460039
aF0.074648999999999993
aF0.040409300000000002
aF0.056995770000000001
aF0.056153069999999999
aF0.05145512
aF0.043049900000000002
aF0.054493100000000003
aF0.056375499999999995
aF0.03951027
aF0.0406708
aF0.077340900000000004
aF0.044977000000000003
aF0.051383199999999997
aF0.045468599999999998
aF0.062544199999999994
aF0.036254500000000002
aF0.080134410000000003
aF0.040495299999999998
aF0.076087799999999997
aF0.045169399999999998
aF0.062314500000000002
aF0.044191800000000003
aF0.0457703
aF0.058020200000000001
aF0.0592525
aF0.092772399999999991
aF0.048896580000000002
aF0.072866199999999992
aF0.048907550000000001
aF0.060432100000000002
aF0.055539699999999997
aF0.057688099999999999
aF0.065945799999999999
aF0.045903100000000002
aF0.064519199999999999
aF0.0613895
aF0.050735700000000002
aF0.048430099999999997
aF0.077233799999999991
aF0.057727979999999998
aF0.05764263
aF0.06618744
aF0.057778099999999999
aF0.0574403
aF0.049807500000000005
aF0.065153500000000003
aF0.061059380000000003
aF0.052333699999999997
aF0.063253180000000006
aF0.058145799999999997
aF0.036100500000000001
aF0.064247299999999993
aF0.057544539999999998
aF0.046511799999999999
aF0.053769999999999998
aF0.06854869999999999
aF0.072827600000000006
aF0.066933209999999993
aF0.060297249999999997
aF0.0427629
aF0.046317799999999999
aF0.052417899999999996
aF0.0574222
aF0.044969799999999997
aF0.060265860000000004
aF0.0535804
aF0.063348630000000003
aF0.056092080000000002
aF0.047418599999999998
aF0.0470024
aF0.065674549999999998
aF0.074851699999999993
aF0.082576900000000009
aF0.060528199999999997
aF0.061567799999999999
aF0.066608399999999998
aF0.058608299999999995
aF0.067986199999999997
aF0.045717800000000003
aF0.049027539999999994
aF0.058280409999999998
aF0.07457359999999999
aF0.064047400000000004
aF0.054941799999999999
aF0.074898199999999998
aF0.065865999999999994
aF0.082960999999999993
aF0.068354499999999999
aF0.10157620000000001
aF0.052270900000000002
aF0.084721199999999997
aF0.051578600000000002
aF0.034836300000000001
aF0.040584299999999997
aF0.055193219999999994
aF0.061663099999999998
aF0.060757800000000001
aF0.076025499999999996
aF0.055926700000000003
aF0.063999699999999993
aF0.05851721
aF0.053708989999999998
aF0.060132620000000005
aF0.062088400000000002
aF0.086369830000000009
aF0.05496376
aF0.060882900000000004
aF0.073304900000000006
aF0.054833100000000003
aF0.058255899999999999
aF0.054364030000000001
aF0.064872399999999997
aF0.051671239999999993
aF0.051370399999999997
aF0.050965700000000003
aF0.057478600000000005
aF0.051085899999999997
aF0.045367499999999998
aF0.049152189999999998
aF0.072215199999999993
aF0.051678200000000001
aF0.051598999999999999
aF0.059962300000000003
aF0.053425790000000001
aF0.061474399999999998
aF0.04780098
aF0.040724299999999998
aF0.047995900000000001
aF0.064517699999999997
aF0.051456799999999997
aF0.050396900000000001
aF0.046061699999999997
aF0.072505199999999992
aF0.073096109999999992
aF0.050055790000000003
aF0.052369900000000004
aF0.0516432
aF0.058750400000000001
aF0.05266419
aF0.0687585
aF0.051556200000000003
aF0.049908099999999997
aF0.061293299999999995
aF0.065119700000000003
aF0.073091020000000007
aF0.045228499999999998
aF0.073000400000000007
aF0.064155600000000007
aF0.066089659999999995
aF0.066956779999999994
aF0.058918600000000002
aF0.041972000000000002
aF0.065025299999999994
aF0.0593365
aF0.060045979999999999
aF0.044034900000000002
aF0.069821499999999995
aF0.062879320000000002
aF0.068410399999999996
aF0.0545193
aF0.064498600000000003
aF0.046430190000000003
aF0.056896700000000001
aF0.062029910000000001
aF0.051604999999999998
aF0.051499700000000002
aF0.0601562
aF0.053513600000000001
aF0.058986200000000003
aF0.059964099999999999
aF0.046257899999999998
aF0.078348199999999993
aF0.041112319999999994
aF0.047994299999999997
aF0.057972800000000005
aF0.067798499999999998
aF0.053086899999999999
aF0.049507599999999999
aF0.062701350000000003
aF0.043987100000000001
aF0.050059799999999995
aF0.058235000000000002
aF0.060270899999999995
aF0.041230099999999999
aF0.062048019999999995
aF0.059494999999999999
aF0.056383090000000004
aF0.064842899999999995
aF0.049249149999999998
aF0.047102999999999999
aF0.081730799999999992
aF0.041355700000000002
aF0.042099409999999997
aF0.056237099999999998
aF0.05840679
aF0.044412899999999998
aF0.055219299999999999
aF0.063920400000000002
aF0.041440200000000003
aF0.069406400000000007
aF0.059728200000000002
aF0.062756999999999993
aF0.060664099999999999
aF0.053392530000000001
aF0.079852300000000001
aF0.056594699999999998
aF0.055133500000000002
aF0.069414799999999999
aF0.065140130000000004
aF0.043233000000000001
aF0.060643699999999995
aF0.047897599999999999
aF0.066721799999999998
aF0.056966000000000003
aF0.045505299999999999
aF0.057316069999999997
aF0.046946700000000001
aF0.048013699999999999
aF0.054205799999999998
aF0.057917900000000001
aF0.042676799999999994
aF0.085111000000000006
aF0.044281899999999999
aF0.0614952
aF0.057638389999999998
aF0.066552699999999992
aF0.052090190000000001
aF0.063015000000000002
aF0.072687519999999992
aF0.049692260000000002
aF0.069176700000000008
aF0.060803429999999999
aF0.058939600000000002
aF0.044824500000000003
aF0.052490299999999997
aF0.064097399999999999
aF0.058082599999999998
aF0.058603500000000003
aF0.053924990000000006
aF0.0414109
aF0.063859750000000007
aF0.057460330000000004
aF0.045888900000000003
aF0.033739900000000003
aF0.044158799999999998
aF0.040681059999999998
aF0.0338619
aF0.0481001
aF0.047395729999999997
aF0.048909300000000003
aF0.051405399999999997
aF0.051858799999999997
aF0.051899019999999997
aF0.0367918
aF0.054789299999999999
aF0.062237819999999999
aF0.051305099999999999
aF0.089830099999999996
aF0.049397000000000003
aF0.061674999999999994
aF0.0418836
aF0.057702320000000001
aF0.045840699999999998
aF0.071948700000000004
aF0.044972810000000002
aF0.044711599999999997
aF0.0542763
aF0.043751519999999995
aF0.042117300000000003
aF0.055117799999999995
aF0.056569009999999996
aF0.064673900000000006
aF0.058323840000000002
aF0.039021380000000001
aF0.077180399999999996
aF0.048481690000000001
aF0.057158800000000003
aF0.0617283
aF0.053806140000000002
aF0.048002599999999999
aF0.059284000000000003
aF0.0548137
aF0.06712833
aF0.054157999999999998
aF0.065145099999999997
aF0.056829200000000003
aF0.046105899999999998
aF0.047762600000000002
aF0.059308800000000002
aF0.065306099999999992
aF0.060235900000000002
aF0.072079699999999997
aF0.050481400000000003
aF0.0695857
aF0.050535899999999995
aF0.070425299999999996
aF0.047991499999999999
aF0.063101299999999999
aF0.052901990000000003
aF0.067778720000000001
aF0.057717499999999998
aF0.067139299999999999
aF0.068519190000000008
aF0.0408788
aF0.078710399999999986
aF0.057659709999999996
aF0.087166400000000005
aF0.064106570000000002
aF0.057837769999999997
aF0.086137000000000005
aF0.063167130000000002
aF0.052477900000000001
aF0.077836099999999991
aF0.059035890000000001
aF0.046378700000000002
aF0.056968370000000004
aF0.054492600000000002
aF0.058736379999999998
aF0.0501488
aF0.051621399999999998
aF0.049568479999999998
aF0.0474715
aF0.054765929999999997
aF0.063702700000000001
aF0.053583499999999999
aF0.0349463
aF0.062162800000000004
aF0.060621599999999998
aF0.051888469999999999
aF0.045366799999999999
aF0.063243400000000005
aF0.057683040000000005
aF0.053823349999999999
aF0.071189299999999997
aF0.058422399999999999
aF0.076526200000000003
aF0.056214899999999998
aF0.055796199999999997
aF0.056958099999999998
aF0.041474400000000002
aF0.060805399999999996
aF0.071088700000000005
aF0.058747720000000003
aF0.061316449999999995
aF0.0459706
aF0.045356100000000003
aF0.087129200000000004
aF0.055695450000000001
aF0.052920220000000004
aF0.068885089999999996
aF0.047095900000000003
aF0.042189699999999997
aF0.054888800000000001
aF0.047105000000000001
aF0.043718900000000005
aF0.049701799999999997
aF0.052681499999999999
aF0.055934499999999998
aF0.057569019999999999
aF0.072188200000000008
aF0.076050400000000004
aF0.085618
aF0.043641300000000001
aF0.062236190000000004
aF0.072708269999999992
aF0.051977950000000002
aF0.056425000000000003
aF0.060098199999999997
aF0.064370499999999997
aF0.062069100000000002
aF0.065838900000000006
aF0.045075400000000002
aF0.048786940000000001
aF0.038768700000000003
aF0.041107499999999998
aF0.041919100000000001
aF0.056026400000000004
aF0.065562700000000002
aF0.057817489999999999
aF0.052129550000000004
aF0.050892300000000001
aF0.065992099999999998
aF0.047320920000000002
aF0.083956630000000004
aF0.072250000000000009
aF0.053003700000000001
aF0.044767399999999999
aF0.0411522
aF0.046100500000000003
aF0.057746499999999999
aF0.056854149999999999
aF0.060716300000000001
aF0.067117650000000001
aF0.063400200000000004
aF0.047387899999999997
aF0.063595199999999991
aF0.077590060000000002
aF0.061837699999999995
aF0.056491780000000005
aF0.052880709999999997
aF0.049566659999999998
aF0.063127500000000003
aF0.065070799999999998
aF0.067832080000000003
aF0.044443799999999999
aF0.060592899999999998
aF0.045114399999999999
aF0.028563100000000001
aF0.045998699999999997
aF0.0448005
aF0.0412463
aF0.064022300000000004
aF0.042512399999999999
aF0.043154390000000001
aF0.061312800000000001
aF0.050962199999999999
aF0.053577819999999998
aF0.089165939999999999
aF0.054284649999999997
aF0.047817800000000001
aF0.042997599999999997
aF0.057493599999999999
aF0.065286899999999995
aF0.0572504
aF0.052388990000000003
aF0.092181099999999988
aF0.0592851
aF0.054986599999999997
aF0.069743899999999998
aF0.053316700000000002
aF0.067807000000000006
aF0.063601900000000003
aF0.051537399999999997
aF0.070080699999999996
aF0.072932010000000005
aF0.055882219999999996
aF0.053765479999999997
aF0.048890000000000003
aF0.068538000000000002
aF0.0405919
aF0.043936099999999999
aF0.061493699999999998
aF0.0524441
aF0.071818199999999999
aF0.056548300000000003
aF0.039297400000000003
aF0.067973500000000006
aF0.051318999999999997
aF0.051165200000000001
aF0.056225799999999999
aF0.056758969999999999
aF0.066831619999999994
aF0.055549950000000001
aF0.047733339999999999
aF0.051707500000000003
aF0.054538000000000003
aF0.072840799999999997
aF0.043904400000000003
aF0.049119099999999999
aF0.068427799999999997
aF0.068277099999999993
aF0.054834670000000002
aF0.055109199999999997
aF0.041606600000000001
aF0.045680529999999997
aF0.080277600000000005
aF0.065397900000000009
aF0.058918499999999999
aF0.070361000000000007
aF0.051088599999999998
aF0.049293299999999998
aF0.078124600000000002
aF0.067111199999999996
aF0.044860270000000001
aF0.072178259999999994
aF0.050624300000000004
aF0.058936799999999998
aF0.077774280000000001
aF0.070417900000000005
aF0.068689899999999998
aF0.056902599999999998
aF0.048909599999999998
aF0.068962300000000004
aF0.040721199999999999
aF0.060652299999999999
aF0.048703299999999998
aF0.057615650000000004
aF0.041261399999999997
aF0.037366999999999997
aF0.062031299999999998
aF0.056666800000000003
aF0.056508999999999997
aF0.050622210000000001
aF0.052760500000000002
aF0.040478899999999998
aF0.063722899999999999
aF0.051718109999999998
aF0.041172500000000001
aF0.05305932
aF0.054579000000000003
aF0.056823470000000001
aF0.046892509999999998
aF0.054764489999999999
aF0.056731469999999999
aF0.063078099999999998
aF0.04639331
aF0.047788999999999998
aF0.040994200000000001
aF0.064401899999999998
aF0.05343473
aF0.055850799999999999
aF0.071325399999999997
aF0.067991999999999997
aF0.052432359999999997
aF0.065356930000000008
aF0.046577500000000001
aF0.056466299999999997
aF0.056293989999999995
aF0.065662979999999996
aF0.046910349999999996
aF0.051321689999999996
aF0.057655100000000001
aF0.055297940000000004
aF0.083251199999999997
aF0.043365599999999997
aF0.057183199999999997
aF0.063391059999999999
aF0.043706399999999999
aF0.062195550000000002
aF0.044180999999999998
aF0.047021709999999994
aF0.065531499999999993
aF0.067128109999999991
aF0.046121570000000001
aF0.041556999999999997
aF0.042108
aF0.059610099999999999
aF0.065360589999999996
aF0.040275100000000001
aF0.048166
aF0.075454869999999993
aF0.059146549999999999
aF0.051486499999999998
aF0.051944799999999999
aF0.075822799999999996
aF0.068874100000000008
aF0.0457872
aF0.046077699999999999
aF0.064633499999999997
aF0.059114769999999997
aF0.049317449999999999
aF0.073964799999999997
aF0.052530550000000002
aF0.0474428
aF0.077933230000000006
aF0.050722400000000001
aF0.071016899999999994
aF0.060173500000000005
aF0.059091000000000005
aF0.079244499999999995
aF0.060432600000000003
aF0.056034500000000001
aF0.076669199999999993
aF0.062245799999999997
aF0.045164900000000001
aF0.070634990000000009
aF0.077335070000000006
aF0.067696199999999998
aF0.079392900000000002
aF0.054898199999999994
aF0.066088999999999995
aF0.051842970000000002
aF0.055412200000000002
aF0.053609299999999999
aF0.068990599999999999
aF0.042500549999999998
aF0.084170999999999996
aF0.061824200000000003
aF0.058816300000000002
aF0.053637840000000006
aF0.064926810000000001
aF0.060301499999999994
aF0.050787200000000005
aF0.054217899999999999
aF0.064810329999999999
aF0.069025779999999995
aF0.053226700000000002
aF0.049926400000000003
aF0.04113559
aF0.057488699999999997
aF0.065651000000000001
aF0.0420484
aF0.0621694
aF0.069010100000000005
aF0.061168200000000006
aF0.052223600000000002
aF0.072463200000000005
aF0.055726970000000001
aF0.059945100000000001
aF0.051332200000000001
aF0.062545299999999998
aF0.041398200000000003
aF0.057915330000000001
aF0.068775699999999995
aF0.046097199999999998
aF0.063279699999999994
aF0.086929099999999995
aF0.042867099999999998
aF0.047384800000000005
aF0.058280699999999998
aF0.051275000000000001
aF0.047596939999999997
aF0.056104899999999999
aF0.048356200000000002
aF0.060902400000000002
aF0.042970700000000001
aF0.062730939999999999
aF0.059938619999999998
aF0.064047199999999999
aF0.045927200000000001
aF0.047346309999999996
aF0.062545500000000004
aF0.068312100000000001
aF0.063098100000000004
aF0.064065999999999998
aF0.0490482
aF0.066830000000000001
aF0.058863799999999994
aF0.055237290000000001
aF0.064924110000000007
aF0.056553569999999997
aF0.078836500000000004
aF0.065089500000000008
aF0.062531799999999998
aF0.046360899999999997
aF0.059769699999999995
aF0.059117639999999999
aF0.057022499999999997
aF0.028644900000000001
aF0.048960219999999999
aF0.063663929999999994
aF0.066183820000000004
aF0.038534800000000001
aF0.072241940000000004
aF0.054035029999999998
aF0.0637852
aF0.060036100000000002
aF0.040418999999999997
aF0.05649875
aF0.058011840000000002
aF0.053224609999999999
aF0.057967400000000002
aF0.0643899
aF0.044759029999999998
aF0.041810600000000003
aF0.06024322
aF0.043217400000000003
aF0.0610734
aF0.080868099999999998
aF0.037985100000000001
aF0.050879099999999997
aF0.056814400000000001
aF0.0467039
aF0.042506500000000003
aF0.043996
aF0.060588900000000001
aF0.056570799999999997
aF0.063324329999999998
aF0.054316840000000005
aF0.038786599999999997
aF0.051038010000000002
aF0.057749300000000003
aF0.0536885
aF0.046935699999999997
aF0.082261600000000004
aF0.044359299999999997
aF0.088075300000000009
aF0.048713100000000002
aF0.064104499999999995
aF0.052671799999999998
aF0.041353500000000001
aF0.054515740000000007
aF0.044705099999999998
aF0.050976189999999998
aF0.047446700000000001
aF0.058542530000000002
aF0.067905399999999991
aF0.062324560000000001
aF0.047359100000000001
aF0.0639541
aF0.050853800000000005
aF0.055000149999999998
aF0.041982800000000001
aF0.065369999999999998
aF0.060488
aF0.068860299999999999
aF0.052480899999999997
aF0.050349499999999998
aF0.075025700000000001
aF0.034399600000000002
aF0.047035199999999999
aF0.053899000000000002
aF0.084109199999999995
aF0.069673139999999995
aF0.049880800000000003
aF0.053062699999999997
aF0.050788399999999997
aF0.050978829999999996
aF0.059070299999999999
aF0.061258599999999996
aF0.056255289999999999
aF0.04934554
aF0.047432929999999998
aF0.072082399999999991
aF0.054760299999999998
aF0.060382930000000001
aF0.068320599999999995
aF0.061434099999999998
aF0.064096299999999995
aF0.054414299999999999
aF0.057860179999999997
aF0.0457848
aF0.073485800000000004
aF0.044889100000000001
aF0.046910800000000002
aF0.052107800000000003
aF0.064122200000000004
aF0.051356010000000001
aF0.043730100000000001
aF0.064049999999999996
aF0.054598439999999998
aF0.062961160000000002
aF0.0420513
aF0.058678649999999999
aF0.066622189999999998
aF0.066066099999999989
aF0.057495000000000004
aF0.066123500000000002
aF0.044294800000000002
aF0.067541600000000007
aF0.063902899999999999
aF0.0716112
aF0.041482100000000001
aF0.062068709999999999
aF0.049820099999999999
aF0.040850239999999996
aF0.0478301
aF0.071487599999999998
aF0.053972399999999997
aF0.102755
aF0.075289099999999998
aF0.052325799999999999
aF0.041781400000000003
aF0.053707669999999999
aF0.054938099999999997
aF0.058434
aF0.10334120000000001
aF0.053386899999999994
aF0.061802200000000002
aF0.060064730000000004
aF0.041714500000000002
aF0.060818300000000006
aF0.07981690000000001
aF0.060997099999999999
aF0.042817899999999999
aF0.050896299999999998
aF0.052709890000000002
aF0.061857099999999998
aF0.071287900000000001
aF0.042583999999999997
aF0.050207799999999997
aF0.060179899999999995
aF0.059193700000000002
aF0.055169429999999998
aF0.046938000000000001
aF0.058224730000000002
aF0.099423199999999989
aF0.071111900000000006
aF0.055946870000000003
aF0.04523605
aF0.058047700000000001
aa(lp6
aa(lp7
(S'2'
S'4'
S'3'
tp8
a(lp9
a(lp10
F0.051651000000000002
aF0.032484100000000002
aF0.053369100000000003
aF0.041263800000000003
aF0.046700610000000004
aF0.048671899999999997
aF0.042743999999999997
aF0.040277500000000001
aF0.030984299999999999
aF0.0346273
aF0.042952799999999999
aF0.052465900000000003
aF0.049245369999999997
aF0.053174800000000001
aF0.046030700000000001
aF0.048098200000000001
aF0.043080899999999998
aF0.048325800000000002
aF0.042034200000000001
aF0.059773100000000003
aF0.0497096
aF0.052115500000000002
aF0.050326000000000003
aF0.0550521
aF0.044405800000000002
aF0.048457
aF0.036673400000000002
aF0.047564099999999998
aF0.057806000000000003
aF0.050257200000000002
aF0.0589007
aF0.028877400000000001
aF0.0422289
aF0.043655899999999997
aF0.054697700000000002
aF0.044539700000000002
aF0.041282800000000001
aF0.054166400000000003
aF0.058944299999999998
aF0.065340899999999993
aF0.050327299999999998
aF0.058637799999999997
aF0.052200400000000001
aF0.022388499999999999
aF0.043624400000000001
aF0.057618599999999999
aF0.060814100000000003
aF0.048857600000000001
aF0.046612500000000001
aF0.0480422
aF0.063384200000000002
aF0.054446599999999998
aF0.052296700000000002
aF0.037021699999999998
aF0.054166600000000002
aF0.062393499999999998
aF0.044106279999999998
aF0.079629500000000006
aF0.0549119
aF0.041282800000000001
aF0.053379099999999999
aF0.047386299999999999
aF0.054042699999999999
aF0.0522554
aF0.051614800000000002
aF0.049916700000000001
aF0.031556399999999998
aF0.047874300000000002
aF0.055519600000000002
aF0.041802400000000003
aF0.0492883
aF0.043828100000000002
aF0.037807
aF0.042848700000000003
aF0.055202500000000002
aF0.068822499999999995
aF0.058919399999999997
aF0.0542056
aF0.042605299999999999
aF0.052681100000000002
aF0.043914599999999998
aF0.047140799999999997
aF0.034733600000000003
aF0.049755800000000003
aF0.04743
aF0.049496699999999998
aF0.048996699999999997
aF0.046748699999999997
aF0.049218369999999997
aF0.047362099999999997
aF0.059755599999999999
aF0.043310700000000001
aF0.039548
aF0.046978100000000002
aF0.043501900000000003
aF0.068414580000000003
aF0.044533200000000002
aF0.042819999999999997
aF0.045136500000000003
aF0.040865899999999997
aF0.047100499999999997
aF0.045822799999999997
aF0.044443400000000001
aF0.0373992
aF0.050520299999999997
aF0.035164500000000001
aF0.045556600000000003
aF0.047260700000000003
aF0.045465199999999997
aF0.039883299999999997
aF0.052783299999999998
aF0.044523100000000003
aF0.074282299999999996
aF0.043343300000000001
aF0.050180500000000003
aF0.0401047
aF0.060488199999999999
aF0.051680900000000002
aF0.050715099999999999
aF0.053073799999999997
aF0.055935600000000002
aF0.050536999999999999
aF0.059023879999999994
aF0.055080200000000003
aF0.054495599999999998
aF0.064517699999999997
aF0.052164349999999998
aF0.076481179999999996
aF0.047652399999999998
aF0.071031999999999998
aF0.049268800000000001
aF0.049979299999999997
aF0.049000299999999997
aF0.059749400000000001
aF0.056817100000000002
aF0.040118800000000003
aF0.045934099999999999
aF0.070559159999999996
aF0.041363799999999999
aF0.046412099999999998
aF0.047957100000000003
aF0.047350900000000001
aF0.054306300000000002
aF0.06501860000000001
aF0.039975200000000002
aF0.058929099999999998
aF0.040599099999999999
aF0.040814499999999997
aF0.063159499999999993
aF0.060062699999999997
aF0.042782399999999998
aF0.067824599999999999
aF0.044024599999999997
aF0.049927510000000001
aF0.056784500000000002
aF0.058559800000000002
aF0.060728200000000003
aF0.051457900000000001
aF0.047640799999999997
aF0.043723199999999997
aF0.045141000000000001
aF0.040958300000000003
aF0.050929380000000003
aF0.0387102
aF0.045682
aF0.058127400000000003
aF0.059967199999999998
aF0.052184300000000003
aF0.047420700000000003
aF0.0425829
aF0.049494799999999999
aF0.047538200000000003
aF0.043496199999999999
aF0.0490289
aF0.0496032
aF0.055533899999999997
aF0.048425799999999998
aF0.056618500000000002
aF0.044002300000000001
aF0.0526521
aF0.038655299999999997
aF0.061179299999999999
aF0.066544300000000001
aF0.045186240000000003
aF0.060727499999999997
aF0.049905999999999999
aF0.039274200000000002
aF0.036781099999999997
aF0.048806200000000001
aF0.048097599999999997
aF0.043359700000000001
aF0.055941400000000002
aF0.049981200000000003
aF0.048322900000000002
aF0.059845799999999998
aF0.048539499999999999
aF0.048708099999999997
aF0.036811799999999999
aF0.071920300000000006
aF0.054322330000000002
aF0.060334199999999998
aF0.051564600000000002
aF0.050574899999999999
aF0.046705999999999998
aF0.041172800000000002
aF0.057764599999999999
aF0.058152299999999997
aF0.045286600000000003
aF0.055955699999999997
aF0.054674199999999999
aF0.060357800000000003
aF0.050725100000000002
aF0.049635199999999997
aF0.049866300000000002
aF0.066317399999999999
aF0.043843899999999998
aF0.056019300000000001
aF0.043745699999999998
aF0.0460039
aF0.038810799999999999
aF0.044339030000000001
aF0.051629500000000002
aF0.050377699999999997
aF0.045352400000000001
aF0.043049900000000002
aF0.043764299999999999
aF0.049917299999999998
aF0.039510200000000002
aF0.0406708
aF0.045918800000000003
aF0.044977000000000003
aF0.047854099999999997
aF0.047595199999999997
aF0.044287800000000002
aF0.036254500000000002
aF0.070390900000000006
aF0.040495299999999998
aF0.038842799999999997
aF0.045169399999999998
aF0.052019700000000002
aF0.044191800000000003
aF0.0457703
aF0.058020200000000001
aF0.0592525
aF0.081719299999999995
aF0.047793000000000002
aF0.038184299999999997
aF0.046715
aF0.049695599999999999
aF0.041031999999999999
aF0.0540676
aF0.031654300000000003
aF0.045903100000000002
aF0.053864299999999997
aF0.040276100000000002
aF0.050735700000000002
aF0.048430099999999997
aF0.066498799999999997
aF0.048618599999999998
aF0.048699100000000002
aF0.059997700000000001
aF0.057778099999999999
aF0.046320300000000002
aF0.042010100000000002
aF0.065153500000000003
aF0.057675400000000002
aF0.037995599999999997
aF0.053909600000000002
aF0.058145799999999997
aF0.036100500000000001
aF0.046211099999999998
aF0.051636399999999999
aF0.053222869999999999
aF0.057098980000000001
aF0.052943499999999998
aF0.046420700000000002
aF0.061634799999999997
aF0.058696999999999999
aF0.0427629
aF0.046317799999999999
aF0.042335499999999998
aF0.0574222
aF0.044969799999999997
aF0.055871900000000002
aF0.0535804
aF0.057242800000000003
aF0.048220300000000001
aF0.047418599999999998
aF0.0470024
aF0.059930900000000002
aF0.064096500000000001
aF0.066930500000000004
aF0.060528199999999997
aF0.042728799999999997
aF0.069937630000000001
aF0.043066599999999997
aF0.053038200000000001
aF0.045717800000000003
aF0.046011499999999997
aF0.051255200000000001
aF0.057962399999999997
aF0.064047400000000004
aF0.044472900000000003
aF0.074898199999999998
aF0.053762499999999998
aF0.065617999999999996
aF0.055787799999999999
aF0.056937599999999998
aF0.052270900000000002
aF0.067985900000000002
aF0.051578600000000002
aF0.0452199
aF0.040584299999999997
aF0.054026699999999997
aF0.061663099999999998
aF0.045164900000000001
aF0.053010599999999998
aF0.055926700000000003
aF0.047484899999999997
aF0.051015999999999999
aF0.046043500000000001
aF0.057793400000000002
aF0.051500400000000002
aF0.079029500000000003
aF0.046120500000000002
aF0.050600100000000002
aF0.073304900000000006
aF0.054833100000000003
aF0.039116100000000001
aF0.053358900000000001
aF0.064872399999999997
aF0.047250599999999997
aF0.061917599999999996
aF0.050965700000000003
aF0.045063800000000001
aF0.051085899999999997
aF0.045367499999999998
aF0.049149699999999998
aF0.072215199999999993
aF0.05431072
aF0.051598999999999999
aF0.059962300000000003
aF0.051658200000000001
aF0.046160800000000002
aF0.043825000000000003
aF0.040724299999999998
aF0.051382049999999999
aF0.049791700000000001
aF0.051456799999999997
aF0.050396900000000001
aF0.046061699999999997
aF0.044401599999999999
aF0.064163999999999999
aF0.047485300000000001
aF0.037961500000000002
aF0.0516432
aF0.058750400000000001
aF0.049404299999999998
aF0.060977400000000001
aF0.051556200000000003
aF0.049908099999999997
aF0.037298199999999997
aF0.025013299999999999
aF0.069558700000000001
aF0.052852329999999996
aF0.053302000000000002
aF0.045685900000000002
aF0.0611721
aF0.060865799999999998
aF0.059716379999999999
aF0.041972000000000002
aF0.065025299999999994
aF0.0593365
aF0.054244599999999997
aF0.044034900000000002
aF0.0569734
aF0.055135700000000003
aF0.044844799999999997
aF0.0545193
aF0.050434100000000003
aF0.038082100000000001
aF0.038802900000000001
aF0.054825400000000003
aF0.051604999999999998
aF0.051499700000000002
aF0.046596499999999999
aF0.054516530000000001
aF0.058986200000000003
aF0.045813899999999998
aF0.046257899999999998
aF0.063347399999999998
aF0.033699399999999997
aF0.047994299999999997
aF0.0359528
aF0.047408899999999997
aF0.053086899999999999
aF0.049507599999999999
aF0.056994499999999997
aF0.043987100000000001
aF0.042064699999999997
aF0.046374600000000002
aF0.047018699999999997
aF0.041230099999999999
aF0.054216399999999998
aF0.059494999999999999
aF0.052843300000000003
aF0.052063499999999999
aF0.039780599999999999
aF0.047102999999999999
aF0.068075399999999994
aF0.041355700000000002
aF0.0400212
aF0.057209159999999995
aF0.050125200000000002
aF0.044412899999999998
aF0.066673499999999997
aF0.046624800000000001
aF0.041440200000000003
aF0.049026100000000003
aF0.043134800000000001
aF0.051894099999999999
aF0.060664099999999999
aF0.044433500000000001
aF0.069430800000000001
aF0.056594699999999998
aF0.058135060000000002
aF0.069414799999999999
aF0.059537800000000002
aF0.043233000000000001
aF0.039771399999999998
aF0.047897599999999999
aF0.0535828
aF0.056966000000000003
aF0.046767070000000001
aF0.052581799999999998
aF0.046946700000000001
aF0.048013699999999999
aF0.054205799999999998
aF0.057917900000000001
aF0.041465799999999997
aF0.065581600000000004
aF0.044281899999999999
aF0.050957500000000003
aF0.047785899999999999
aF0.052816099999999998
aF0.042149100000000002
aF0.048835099999999999
aF0.063012299999999993
aF0.0471105
aF0.046512299999999999
aF0.054714100000000002
aF0.048419400000000001
aF0.051722680000000007
aF0.052490299999999997
aF0.048047600000000003
aF0.058082599999999998
aF0.058603500000000003
aF0.046695800000000003
aF0.0414109
aF0.055708500000000001
aF0.0517402
aF0.045888900000000003
aF0.033739900000000003
aF0.044158799999999998
aF0.034341999999999998
aF0.0338619
aF0.0481001
aF0.041441800000000001
aF0.048909300000000003
aF0.051405399999999997
aF0.045999199999999997
aF0.047509999999999997
aF0.0367918
aF0.0365037
aF0.058888700000000002
aF0.043033700000000001
aF0.071930599999999997
aF0.049397000000000003
aF0.047607499999999997
aF0.0418836
aF0.050657500000000001
aF0.045840699999999998
aF0.059495399999999997
aF0.044860700000000003
aF0.042510899999999997
aF0.0542763
aF0.040177499999999998
aF0.042117300000000003
aF0.045034699999999997
aF0.047880699999999998
aF0.0315357
aF0.051410299999999999
aF0.039021300000000002
aF0.063343099999999999
aF0.043833900000000002
aF0.041622300000000001
aF0.0617283
aF0.050913
aF0.048002599999999999
aF0.061497270000000007
aF0.050196499999999998
aF0.0574063
aF0.054157999999999998
aF0.0497113
aF0.056829200000000003
aF0.046105899999999998
aF0.047762600000000002
aF0.059308800000000002
aF0.062829399999999994
aF0.048384000000000003
aF0.051579600000000003
aF0.050481400000000003
aF0.057195200000000002
aF0.040142999999999998
aF0.059562999999999998
aF0.047991499999999999
aF0.0523864
aF0.045078600000000003
aF0.062364299999999998
aF0.047271199999999999
aF0.046125699999999999
aF0.059929200000000002
aF0.0408788
aF0.067691699999999994
aF0.049920699999999998
aF0.0482005
aF0.062181300000000002
aF0.0505841
aF0.086137000000000005
aF0.056304399999999998
aF0.052477900000000001
aF0.046061600000000001
aF0.050818500000000003
aF0.040488400000000001
aF0.049819500000000003
aF0.041630199999999999
aF0.0528256
aF0.0501488
aF0.053865709999999997
aF0.046230199999999999
aF0.0474715
aF0.045431399999999997
aF0.052308100000000003
aF0.026527800000000001
aF0.0349463
aF0.042313099999999999
aF0.056054399999999997
aF0.048709099999999998
aF0.046571649999999999
aF0.0487374
aF0.047873800000000001
aF0.045578899999999999
aF0.0595913
aF0.045788200000000001
aF0.062454299999999997
aF0.045606899999999999
aF0.042947199999999998
aF0.045822799999999997
aF0.046838249999999998
aF0.043026799999999997
aF0.071088700000000005
aF0.051141600000000002
aF0.055586299999999998
aF0.0459706
aF0.045356100000000003
aF0.071204600000000007
aF0.053962299999999998
aF0.0444646
aF0.060567900000000001
aF0.047095900000000003
aF0.042189699999999997
aF0.054888800000000001
aF0.047105000000000001
aF0.040492300000000002
aF0.049702419999999997
aF0.052681499999999999
aF0.048459799999999997
aF0.049829699999999998
aF0.059256900000000001
aF0.061629200000000002
aF0.073034299999999996
aF0.052702869999999999
aF0.053564300000000002
aF0.063739599999999993
aF0.043212
aF0.037283400000000001
aF0.060098199999999997
aF0.053891500000000002
aF0.062069100000000002
aF0.038311900000000003
aF0.045075400000000002
aF0.043844399999999999
aF0.042399490000000005
aF0.041107499999999998
aF0.041919100000000001
aF0.051237600000000001
aF0.053111199999999997
aF0.050432900000000003
aF0.043701400000000001
aF0.050892300000000001
aF0.065992099999999998
aF0.042714500000000002
aF0.076867000000000005
aF0.056316400000000003
aF0.053003700000000001
aF0.044767399999999999
aF0.0411522
aF0.048514700000000001
aF0.047335599999999999
aF0.0479522
aF0.046656900000000001
aF0.059049299999999999
aF0.049619799999999999
aF0.0313926
aF0.040014399999999999
aF0.070877499999999996
aF0.047295499999999997
aF0.050437000000000003
aF0.044849899999999998
aF0.0456984
aF0.063127500000000003
aF0.065070799999999998
aF0.062687199999999998
aF0.044443799999999999
aF0.049462699999999998
aF0.045114399999999999
aF0.054843100000000006
aF0.045998699999999997
aF0.030983299999999998
aF0.0412463
aF0.0417849
aF0.042512399999999999
aF0.040408800000000002
aF0.050718699999999999
aF0.049969800000000002
aF0.046582100000000001
aF0.079870800000000006
aF0.048848599999999999
aF0.047817800000000001
aF0.042997599999999997
aF0.047331999999999999
aF0.042871399999999997
aF0.0572504
aF0.042687900000000001
aF0.071599399999999994
aF0.047195899999999999
aF0.035823000000000001
aF0.067836599999999997
aF0.034462100000000002
aF0.048595100000000002
aF0.0598483
aF0.051537399999999997
aF0.0542435
aF0.063308400000000001
aF0.0501664
aF0.049927699999999998
aF0.048890000000000003
aF0.048186600000000003
aF0.0405919
aF0.043936099999999999
aF0.043912800000000002
aF0.0524441
aF0.056460499999999997
aF0.063142829999999997
aF0.039297400000000003
aF0.067973500000000006
aF0.038877299999999997
aF0.051165200000000001
aF0.056225799999999999
aF0.047788499999999998
aF0.061259099999999997
aF0.0490342
aF0.041834999999999997
aF0.051707500000000003
aF0.059931120000000004
aF0.072840799999999997
aF0.043904400000000003
aF0.049119099999999999
aF0.0525189
aF0.051711399999999998
aF0.045470099999999999
aF0.055109199999999997
aF0.041606600000000001
aF0.0421085
aF0.066845799999999997
aF0.055465300000000002
aF0.047431500000000001
aF0.047308200000000002
aF0.039522799999999997
aF0.05305824
aF0.030880399999999999
aF0.054785199999999999
aF0.041269199999999999
aF0.064111899999999999
aF0.046693600000000002
aF0.058936799999999998
aF0.072361800000000004
aF0.059999999999999998
aF0.068689899999999998
aF0.044035499999999998
aF0.048909599999999998
aF0.052394999999999997
aF0.052645200000000003
aF0.047507500000000001
aF0.048703299999999998
aF0.055590500000000001
aF0.047090129999999994
aF0.037366999999999997
aF0.0498691
aF0.056666800000000003
aF0.056509489999999996
aF0.046378799999999998
aF0.052760500000000002
aF0.055230099999999997
aF0.044011300000000003
aF0.041839099999999997
aF0.041172500000000001
aF0.047369700000000001
aF0.0444692
aF0.050371899999999997
aF0.042228000000000002
aF0.052224800000000002
aF0.0475615
aF0.038489099999999998
aF0.045481100000000003
aF0.047788999999999998
aF0.040994200000000001
aF0.045386500000000003
aF0.050736799999999999
aF0.048363499999999997
aF0.053346699999999997
aF0.053629799999999998
aF0.048055399999999998
aF0.056758200000000002
aF0.046577500000000001
aF0.050910799999999999
aF0.050621899999999997
aF0.056455699999999998
aF0.043635599999999997
aF0.049909099999999998
aF0.057655100000000001
aF0.046332600000000002
aF0.083251199999999997
aF0.043365599999999997
aF0.042406199999999998
aF0.059339700000000002
aF0.043706399999999999
aF0.055777
aF0.044180999999999998
aF0.044790999999999997
aF0.0457826
aF0.059206099999999998
aF0.0400661
aF0.041556999999999997
aF0.042108
aF0.059610099999999999
aF0.059795099999999997
aF0.040275100000000001
aF0.050896209999999997
aF0.066146499999999997
aF0.050237400000000001
aF0.051486499999999998
aF0.038621099999999998
aF0.075822799999999996
aF0.064611100000000005
aF0.0543902
aF0.046077699999999999
aF0.050219800000000002
aF0.055790899999999997
aF0.043364300000000001
aF0.061971400000000003
aF0.049755500000000001
aF0.0474428
aF0.070471300000000001
aF0.050722400000000001
aF0.071016899999999994
aF0.049383200000000002
aF0.048848900000000001
aF0.057444099999999998
aF0.038738300000000003
aF0.046644400000000003
aF0.048590099999999997
aF0.040079499999999997
aF0.045164900000000001
aF0.063997600000000002
aF0.074960200000000005
aF0.047272599999999998
aF0.059195499999999998
aF0.043425699999999998
aF0.040754899999999997
aF0.0428913
aF0.043505000000000002
aF0.053609299999999999
aF0.045525500000000003
aF0.039240999999999998
aF0.046099300000000003
aF0.051402700000000003
aF0.041646099999999998
aF0.052920300000000003
aF0.057523400000000002
aF0.050448399999999997
aF0.0350274
aF0.054218999999999996
aF0.056936
aF0.063045799999999999
aF0.047091800000000003
aF0.049926400000000003
aF0.037594799999999998
aF0.049553899999999998
aF0.044511700000000001
aF0.0420484
aF0.050705
aF0.054345400000000002
aF0.046151900000000003
aF0.052223600000000002
aF0.060448399999999999
aF0.049936000000000001
aF0.037148100000000003
aF0.051332200000000001
aF0.047582199999999998
aF0.064105300000000004
aF0.054089600000000002
aF0.051423400000000001
aF0.046097199999999998
aF0.049549299999999998
aF0.065476099999999995
aF0.042867099999999998
aF0.032568800000000002
aF0.066821229999999995
aF0.039214499999999999
aF0.0454303
aF0.056104899999999999
aF0.048356200000000002
aF0.052893700000000002
aF0.042970700000000001
aF0.055700800000000002
aF0.053566799999999998
aF0.044496599999999997
aF0.045927200000000001
aF0.041576099999999998
aF0.0518845
aF0.0333607
aF0.0470818
aF0.064066079999999997
aF0.0490482
aF0.069108180000000005
aF0.045003099999999997
aF0.054281799999999998
aF0.062387600000000001
aF0.047901800000000001
aF0.067301700000000006
aF0.054071300000000003
aF0.048533899999999998
aF0.046360899999999997
aF0.046941999999999998
aF0.054600999999999997
aF0.042108399999999997
aF0.028644900000000001
aF0.041887599999999997
aF0.054071899999999999
aF0.0579099
aF0.038534800000000001
aF0.063968999999999998
aF0.045358900000000001
aF0.0637852
aF0.054786399999999999
aF0.048377719999999999
aF0.047916399999999998
aF0.048953700000000003
aF0.044762799999999998
aF0.044518599999999998
aF0.051696600000000002
aF0.0419531
aF0.041810600000000003
aF0.051818999999999997
aF0.043217400000000003
aF0.0610734
aF0.065398899999999996
aF0.041274020000000002
aF0.050879099999999997
aF0.038048199999999997
aF0.0467039
aF0.042506500000000003
aF0.043996
aF0.062779340000000003
aF0.056570799999999997
aF0.058896999999999998
aF0.052181900000000003
aF0.038786599999999997
aF0.047553900000000003
aF0.0434007
aF0.0536885
aF0.046935699999999997
aF0.068645700000000004
aF0.046339239999999997
aF0.074400400000000005
aF0.048713100000000002
aF0.064104499999999995
aF0.052671799999999998
aF0.041353500000000001
aF0.050750000000000003
aF0.044705099999999998
aF0.043025399999999998
aF0.047446700000000001
aF0.0542336
aF0.055430599999999997
aF0.054813500000000001
aF0.047359100000000001
aF0.051767199999999999
aF0.040930000000000001
aF0.0477343
aF0.041982800000000001
aF0.041663899999999997
aF0.047839300000000001
aF0.052117700000000003
aF0.052480899999999997
aF0.050349499999999998
aF0.056151399999999997
aF0.034399600000000002
aF0.047035199999999999
aF0.053899000000000002
aF0.032368599999999997
aF0.0672233
aF0.049880800000000003
aF0.053062699999999997
aF0.050788399999999997
aF0.043891699999999999
aF0.059070299999999999
aF0.040468799999999999
aF0.046827899999999999
aF0.0404196
aF0.041337499999999999
aF0.056795699999999998
aF0.054760299999999998
aF0.054606300000000003
aF0.059172799999999998
aF0.061434099999999998
aF0.049531699999999998
aF0.0418146
aF0.054191400000000001
aF0.0457848
aF0.0570009
aF0.044889100000000001
aF0.046910800000000002
aF0.054997610000000002
aF0.064122200000000004
aF0.049841799999999999
aF0.046921040000000004
aF0.064049999999999996
aF0.052283900000000001
aF0.062372499999999997
aF0.0420513
aF0.057422500000000001
aF0.059188400000000002
aF0.050069299999999997
aF0.045946000000000001
aF0.046990299999999999
aF0.044294800000000002
aF0.052753500000000002
aF0.063902899999999999
aF0.056090500000000001
aF0.041482100000000001
aF0.055406799999999999
aF0.049820099999999999
aF0.0351502
aF0.0478301
aF0.059260500000000001
aF0.053972399999999997
aF0.056709000000000002
aF0.053447500000000002
aF0.052325799999999999
aF0.041781400000000003
aF0.048816499999999999
aF0.054938099999999997
aF0.043482800000000002
aF0.096509300000000006
aF0.040714599999999997
aF0.061802200000000002
aF0.051822100000000003
aF0.041714500000000002
aF0.045160400000000003
aF0.063327400000000006
aF0.050084099999999999
aF0.061761399999999994
aF0.050896299999999998
aF0.049535700000000002
aF0.061857099999999998
aF0.059281399999999998
aF0.042583999999999997
aF0.050207799999999997
aF0.045515399999999998
aF0.051715799999999999
aF0.046049199999999998
aF0.060027499999999998
aF0.048919400000000002
aF0.064774999999999999
aF0.045602200000000002
aF0.046524000000000003
aF0.045235400000000002
aF0.058047700000000001
aa(lp11
aa(lp12
(S'2'
S'1'
S'3'
tp13
a(lp14
F0.0017510799999999999
aF0.050774600000000003
aF0.0216948
aF0.0050115300000000002
aF0.022405600000000001
aF0.017976700000000002
aF0.020699200000000001
aF0.042710199999999997
aF0.00180328
aF0.0140307
aF5.0200000000000002e-06
aF8.0000000000000002e-08
aF0.0197939
aF0.0232827
aF0.0030480699999999999
aF0.0062934499999999999
aF0.0267827
aF0.017941800000000001
aF0.018488000000000001
aF0.031300099999999997
aF0.017061199999999999
aF0.015190199999999999
aF0.00194214
aF0.032892699999999997
aF0.0087921200000000005
aF0.016611799999999999
aF0.0155102
aF0.034649800000000001
aF2.7949999999999998e-05
aF0.0289669
aF0.0034138200000000001
aF0.017054099999999999
aF0.0065579000000000002
aF0.0083884300000000005
aF0.023299199999999999
aF0.019024599999999999
aF0.0288893
aF0.0358927
aF0.00103813
aF0.00092719999999999999
aF0.0183199
aF0.023140999999999998
aF0.00724407
aF0.0188749
aF0.0016373799999999999
aF0.019551099999999998
aF0.0213811
aF0.0110373
aF0.012271799999999999
aF0.022279199999999999
aF0.0040807700000000001
aF0.012090699999999999
aF0.0048246499999999998
aF0.020140700000000001
aF0.026835899999999999
aF0.0094916500000000008
aF0.0064825000000000004
aF0.014737500000000001
aF0.0108646
aF0.017380199999999998
aF0.029917300000000001
aF0.022092500000000001
aF0.0139618
aF0.015297
aF0.025069000000000001
aF0.015738599999999998
aF0.0035692599999999999
aF2.0639999999999999e-05
aF0.017866400000000001
aF0.0146491
aF0.023652099999999999
aF0.016792499999999998
aF0.016006699999999999
aF0.014137800000000001
aF0.011459499999999999
aF0.017167600000000002
aF0.0177515
aF0.0255769
aF0.0146626
aF0.0038003400000000001
aF0.014096900000000001
aF0.022671299999999998
aF0.0011253299999999999
aF0.021446099999999999
aF0.0080069000000000008
aF0.0041384899999999999
aF0.0124092
aF0.025687700000000001
aF0.0121858
aF0.0043576099999999996
aF0.022817199999999999
aF0.0229695
aF0.0193768
aF0.0048948000000000004
aF0.0079285399999999995
aF0.019138100000000002
aF0.027127700000000001
aF0.0110426
aF0.0018803800000000001
aF0.041422100000000003
aF0.017129200000000001
aF0.019643399999999998
aF0.0013407899999999999
aF0.014894599999999999
aF0.025611499999999999
aF0.0079157199999999994
aF0.0036389500000000002
aF0.0135683
aF0.019169200000000001
aF0.029612599999999999
aF0.027219299999999998
aF0.0213034
aF0.0121397
aF0.0099981099999999993
aF0.0030669999999999998
aF3.7e-07
aF0.0162548
aF0.017313499999999999
aF0.0228253
aF0.020165099999999998
aF0.0077254699999999999
aF0.0021476199999999998
aF0.037205200000000001
aF0.017654699999999999
aF0.0101718
aF0.023907999999999999
aF0.026789899999999998
aF0.021270500000000001
aF0.00992146
aF0.052315899999999999
aF0.0134704
aF0.0065222199999999996
aF0.0189713
aF0.0168097
aF0.01223
aF0.0286901
aF0.0145446
aF0.028492199999999999
aF0.011987899999999999
aF0.0102828
aF0.00255937
aF0.021080999999999999
aF0.019644399999999999
aF0.018392599999999999
aF0.022433399999999999
aF0.0025647500000000002
aF0.0077051200000000002
aF0.012077600000000001
aF0.00093495999999999998
aF0.015946800000000001
aF0.029346000000000001
aF0.0096970300000000006
aF0.012943400000000001
aF0.00447658
aF0.025263799999999999
aF0.0132246
aF0.0045836499999999999
aF0.079381300000000002
aF0.0039926800000000002
aF0.020489299999999998
aF0.0035904800000000001
aF0.0197745
aF0.027366399999999999
aF0.0099607399999999992
aF0.010642
aF0.00348175
aF0.020449499999999999
aF0.0073154099999999996
aF0.0038540699999999998
aF0.014614800000000001
aF0.037409400000000002
aF0.0154074
aF7.0000000000000005e-08
aF0.017795600000000002
aF0.018025200000000002
aF0.0184291
aF0.0151071
aF0.019200800000000001
aF0.0265595
aF0.013037099999999999
aF0.016007799999999999
aF0.012655899999999999
aF0.0089879199999999999
aF0.018064199999999999
aF0.020628000000000001
aF0.015763300000000001
aF0.032945099999999998
aF0.0225915
aF0.010943
aF0.015955799999999999
aF0.0152157
aF0.0088107399999999992
aF0.0360317
aF0.020729000000000001
aF0.0152436
aF0.00568032
aF0.0215126
aF0.021640599999999999
aF0.054450699999999998
aF0.013367800000000001
aF0.027645400000000001
aF0.015296199999999999
aF0.0044500199999999998
aF0.012189
aF0.024906899999999999
aF0.016116499999999999
aF0.026215200000000001
aF0.045224100000000003
aF0.031193800000000001
aF0.0063551399999999996
aF0.047684400000000002
aF0.017845900000000001
aF0.025082
aF0.026721200000000001
aF0.028792000000000002
aF0.015323
aF0.026294499999999998
aF0.0096754400000000004
aF0.023677400000000001
aF0.0211515
aF0.0150049
aF0.023792000000000001
aF0.030855799999999999
aF0.021689400000000001
aF0.0149164
aF0.035862499999999999
aF0.015852100000000001
aF0.0262247
aF0.017901299999999998
aF0.014222
aF0.0169015
aF0.016860699999999999
aF0.023637600000000002
aF0.029140300000000001
aF0.00082065000000000003
aF0.020428100000000001
aF0.0223013
aF0.020342300000000001
aF0.0299379
aF0.018794399999999999
aF0.015845499999999998
aF0.034721700000000001
aF0.0088008800000000005
aF0.00091847000000000001
aF0.012422000000000001
aF0.0085483399999999998
aF0.0069459099999999996
aF0.0141592
aF0.0192739
aF0.031926999999999997
aF0.015720100000000001
aF0.0025186000000000002
aF0.024031199999999999
aF0.0119319
aF0.0063227500000000002
aF0.022541800000000001
aF0.016565300000000002
aF0.0231985
aF0.0102746
aF0.0147219
aF0.0227522
aF0.017019099999999999
aF0.0195806
aF2.5890000000000001e-05
aF0.019145499999999999
aF0.027923400000000001
aF0.0166351
aF0.012180399999999999
aF0.034114899999999997
aF0.044925300000000001
aF0.019285900000000002
aF0.018023299999999999
aF0.018918999999999998
aF0.01695
aF0.0210447
aF0.0079006000000000007
aF0.022420900000000001
aF0.018219800000000001
aF0.0101364
aF0.0102816
aF0.0154555
aF0.0047060799999999996
aF0.029439099999999999
aF0.033405900000000002
aF1.8e-07
aF0.0160117
aF0.0182604
aF0.0091054399999999994
aF0.0118388
aF0.0127644
aF0.019217000000000001
aF0.0190554
aF0.017000999999999999
aF0.0130968
aF0.020847000000000001
aF0.021616699999999999
aF0.0120421
aF0.0256493
aF0.0079693999999999997
aF0.0149441
aF0.0153697
aF0.024287
aF0.0090083000000000003
aF0.0023138799999999999
aF0.029534899999999999
aF0.019707100000000002
aF0.0186156
aF0.041248899999999998
aF0.0146661
aF0.012715300000000001
aF0.013402900000000001
aF0.0250551
aF0.0023159500000000002
aF0.0169348
aF0.0103126
aF0.017919399999999999
aF0.014061799999999999
aF0.027877099999999998
aF0.025292700000000001
aF0.0106452
aF0.017328400000000001
aF0.016446800000000001
aF0.0069401599999999999
aF0.020258700000000001
aa(lp15
F0.00119041
aF0.0009771999999999999
aF0.00057536999999999996
aF0.00152078
aF7.0000000000000005e-08
aF0.0021913800000000002
aF0.00095217999999999995
aF0.0033616499999999999
aF0.00143158
aF0.0053094600000000002
aF0.015795400000000001
aF0.00027211
aF0.0074139799999999997
aF0.0020748400000000001
aF0.0112627
aF0.0075342300000000003
aF0.0137114
aF0.0039297300000000002
aF0.0021266000000000002
aF0.0067110700000000004
aF0.00332898
aF0.0033292299999999999
aF0.0103836
aF0.0105472
aF0.0026325200000000002
aF0.0033861500000000001
aF0.0076238299999999998
aF0.00079778
aF0.00100293
aF0.00097205999999999996
aF0.011454199999999999
aF0.0030015599999999999
aF0.0012617699999999999
aF0.0068981800000000003
aF0.0022132699999999998
aF0.0022443099999999998
aF0.0012048499999999999
aF0.0053638499999999999
aF6.1999999999999999e-07
aF0.0090615699999999997
aF0.0036307900000000001
aF0.0024142
aF0.026280000000000001
aF0.0065945300000000004
aF0.0053931200000000004
aF0.00376494
aF0.011924000000000001
aF0.0058287299999999998
aF4.8999999999999997e-07
aF0.014751200000000001
aF0.0027302099999999998
aF0.0086029999999999995
aF1.1000000000000001e-06
aF0.022707100000000001
aF0.0085405299999999993
aF8.0000000000000002e-08
aF0.0022781799999999999
aF0.0079587200000000007
aF0.0032889199999999999
aF0.0021904400000000001
aF0.0019799399999999999
aF0.00288981
aF0.0031909400000000002
aF0.018943499999999999
aF0.0130895
aa(lp16
F0.0099273799999999995
aF0.015567299999999999
aF0.0137739
aF0.0139098
aF0.0063362999999999996
aF0.0331761
aF0.010973999999999999
aF0.0082785099999999993
aF0.0114476
aF0.0020984599999999999
aF0.0176247
aF0.0012089100000000001
aF0.0084856700000000007
aF0.021047799999999998
aF0.00015160999999999999
aF0.0239359
aF0.0058624100000000002
aF0.0122252
aF0.013369900000000001
aF0.00436733
aF0.0045204599999999996
aF0.0055861799999999996
aF0.0038464599999999999
aF0.0173898
aF0.00477495
aF0.016509900000000001
aF0.033435600000000003
aF0.0118306
aF0.00073026000000000005
aF0.014975799999999999
aF0.0081517800000000008
aF0.00648797
aF0.0048951200000000002
aF0.0047714999999999997
aF0.0032751299999999998
aF0.0218222
aF0.0036552899999999998
aF0.010866600000000001
aF0.00468412
aF0.0019331299999999999
aF0.0050236400000000002
aF0.0098675499999999992
aF0.0123622
aF0.0039805300000000004
aF0.0155006
aF0.0083386199999999997
aF0.0123345
aF0.0068544499999999998
aF0.0305104
aF0.0059948299999999996
aF0.013164
aF0.0100932
aF0.025581099999999999
aF0.0099455099999999994
aF0.024087399999999998
aF0.0090981499999999993
aF0.012338200000000001
aF0.0121324
aF0.00674838
aF0.0132234
aF0.0151194
aF0.0064101799999999997
aF0.0168741
aF0.017148699999999999
aF0.010591
aF0.020279800000000001
aF0.017969099999999998
aF0.019029999999999998
aF0.0141152
aF0.0290231
aF0.0062170799999999998
aF0.0102699
aF0.0086562900000000005
aF0.022507699999999999
aF0.0096394800000000006
aF0.0127277
aF0.00400644
aF0.0011639700000000001
aF0.011665999999999999
aF0.0075384700000000002
aF3.9999999999999998e-07
aF0.0092160899999999997
aF0.0085434399999999994
aF0.0056467499999999999
aF0.00038002000000000001
aF0.0083783799999999995
aF0.0042785100000000001
aF0.0086432200000000001
aF0.0022166099999999999
aF0.0021707599999999999
aF0.0096477899999999998
aF0.015049999999999999
aF0.0117614
aF0.0068260300000000003
aF0.0129786
aF0.0132823
aF0.0136127
aF0.0143648
aF0.0023352899999999998
aF0.00020592000000000001
aF0.0154558
aF0.013451299999999999
aF0.013851199999999999
aF0.0109721
aF0.0095544700000000007
aF0.00887048
aF0.012214300000000001
aF0.0107489
aF0.022774099999999999
aF0.0109672
aF0.0086022200000000007
aF0.0078110000000000002
aF0.0067370199999999998
aF0.023227600000000001
aF0.0128907
aF0.0057998700000000004
aF0.010175099999999999
aF0.0103482
aF0.0242466
aF0.0063648699999999999
aF0.010576199999999999
aF0.0066978000000000003
aF0.015603000000000001
aF0.0090765499999999992
aF0.0067901999999999997
aF0.0057851200000000004
aF0.0051663100000000003
aF0.0133267
aF0.035838200000000001
aF0.0053662700000000002
aF0.0057753700000000002
aF0.0061027199999999998
aF0.0107288
aF0.0064581999999999999
aF7.0000000000000005e-08
aF0.031422100000000001
aF0.0035290999999999999
aF0.018256399999999999
aF0.0097435100000000004
aF0.037245
aF0.0102948
aF0.0110531
aF0.0011035800000000001
aF0.034681900000000002
aF0.0021925500000000001
aF0.0107365
aF0.0145077
aF0.0036205
aF0.034291500000000003
aF0.0106549
aF0.021113400000000001
aF0.010735
aF0.0091093800000000003
aF0.0089435299999999999
aF0.00618974
aF0.01112
aF0.0077974000000000003
aF0.00338398
aF0.014338099999999999
aF0.0093435800000000006
aF0.018036199999999999
aF0.0059081400000000001
aF0.0156052
aF0.026406900000000001
aF0.0052984099999999999
aF0.0016002499999999999
aF0.0100824
aF0.0043939599999999997
aF0.0061058299999999996
aF0.0078717800000000001
aF0.0057436500000000003
aF0.010755199999999999
aF0.015646400000000001
aF0.018839000000000002
aF0.0155417
aF0.014947999999999999
aF0.0030160400000000002
aF0.0070252099999999996
aF0.0166112
aF0.0104689
aF0.0121035
aF0.017343000000000001
aF0.0125667
aF0.044638600000000001
aF0.016735300000000002
aF0.0011665200000000001
aF0.0155929
aF0.023014900000000001
aF0.0165148
aF0.0075012100000000003
aF0.0076654899999999996
aF0.0023392199999999999
aF0.010588
aF0.0073403299999999999
aF0.0088432600000000004
aF0.0102828
aF0.019139799999999998
aF0.0010051299999999999
aF0.00442064
aF0.0124148
aF2.4899999999999999e-06
aF0.0017675900000000001
aF0.0153136
aF0.0039759799999999996
aF0.014726
aF0.028103599999999999
aF0.00893211
aF0.0025704899999999999
aF0.0144084
aF0.0032598900000000001
aF0.0077811
aF0.023995099999999998
aF0.0401064
aF0.0035323199999999998
aF0.019698400000000001
aF0.018469699999999999
aF0.0049175599999999996
aF0.0060909800000000002
aF0.0058013800000000001
aF0.012848099999999999
aF0.0077436199999999997
aF0.023565599999999999
aF0.014064500000000001
aF0.0083480900000000007
aF0.0180938
aF0.0072045099999999999
aF0.013559699999999999
aF0.0141502
aF0.0150008
aF0.0074129199999999999
aF0.022020000000000001
aF0.020389600000000001
aF0.0057068500000000003
aF0.0079950999999999998
aF0.0118604
aF0.0132522
aF0.0078316199999999992
aF0.0035397900000000001
aF0.0127794
aF0.0094685499999999992
aF0.0136554
aF0.00207821
aF0.0082815900000000001
aF0.017295600000000001
aF0.0203803
aF0.016593400000000001
aF0.0108629
aF0.0089590299999999998
aF0.0104215
aF0.00560233
aF0.0208723
aF0.013139
aF0.0047342699999999996
aF0.0012110000000000001
aF0.019529399999999999
aF0.010537700000000001
aF0.0098524900000000002
aF0.0137366
aF0.0099410899999999996
aF0.0141799
aF0.00967522
aF0.0025817599999999998
aF0.022664400000000001
aF0.0060893299999999996
aF0.0105202
aF0.016049799999999999
aF0.0072291899999999999
aF0.0081512500000000005
aF0.0057201300000000004
aF0.0063390599999999997
aF0.0059539299999999996
aF0.0058596000000000004
aF0.0043890200000000004
aF0.018285599999999999
aF0.0033491200000000001
aF0.0082713999999999999
aF0.017899499999999999
aF0.0140675
aF0.0070448200000000002
aF0.0124533
aF0.00011211
aF0.0022006999999999999
aF0.0035740199999999998
aF0.010083099999999999
aF0.0086883099999999994
aF0.0331382
aF0.0069135400000000001
aF8.0000000000000002e-08
aF0.0138373
aF0.0046477899999999997
aF0.0155365
aF0.0028931400000000002
aF0.0046172000000000001
aF0.0097220299999999996
aF0.015433799999999999
aF0.0024767000000000001
aF0.0118519
aF0.0205001
aF0.0123905
aF0.0103929
aF0.0108623
aF0.010714899999999999
aF0.0078233899999999995
aF0.0054144199999999996
aF0.0104463
aF0.0210136
aF0.0085899900000000005
aF0.011018699999999999
aF0.0077390100000000002
aF0.038965899999999998
aF0.00192527
aF0.0072536700000000003
aF0.00686273
aF0.031774499999999997
aF0.0082173899999999998
aF0.0058903000000000002
aF0.0071488699999999999
aF0.0128624
aF0.00591078
aF0.0033382799999999999
aF0.0093345300000000006
aF0.0113946
aF0.027055699999999999
aF0.019849700000000001
aF0.0045672000000000004
aF0.0031793699999999999
aF0.014506
aF0.0098092400000000003
aF0.0082444500000000004
aF0.011598000000000001
aF0.0126342
aF0.0140719
aF0.010607999999999999
aF0.012848999999999999
aF0.011135300000000001
aF0.017778599999999999
aF0.0076061200000000001
aF0.0057301499999999998
aF0.015924600000000001
aF0.0017331499999999999
aF0.0084556200000000005
aF0.0083171900000000003
aF0.0032266
aF0.0074746999999999999
aF0.0077393200000000001
aF0.0129313
aF0.0144212
aF0.0125837
aF0.0086718899999999998
aF0.0089686699999999998
aF0.0087659499999999998
aF0.019141600000000002
aF0.010479
aF0.027526999999999999
aF0.0049425399999999996
aF0.0047888000000000002
aF0.012451500000000001
aF0.0073845899999999999
aF0.0084281500000000006
aF0.00460642
aF0.0070896300000000004
aF0.015933599999999999
aF0.010410900000000001
aF0.0089019500000000005
aF0.0140594
aF0.0080683500000000002
aF0.0137804
aF0.0159953
aF0.023580799999999999
aF0.0067125600000000002
aF0.0145422
aF0.0060547800000000001
aF0.0080308099999999993
aF0.0038682600000000001
aF0.0051448800000000001
aF0.0111302
aF0.0138172
aF0.022237400000000001
aF0.00274559
aF0.0105941
aF0.00099240000000000005
aF0.0069957200000000004
aF0.0092951400000000003
aF0.0054360500000000004
aF0.0101616
aF0.022415500000000001
aF0.0097010900000000008
aF0.020581700000000001
aF0.0120892
aF0.019163599999999999
aF0.0019073
aF0.018854599999999999
aF0.019211900000000001
aF0.0037536000000000002
aF0.015837199999999999
aF0.0096236099999999995
aF0.0057158199999999999
aF0.0038377799999999998
aF0.020351399999999999
aF0.0175809
aF0.0153577
aF0.0124417
aF0.0089704699999999995
aF0.0055725200000000001
aF0.0065157499999999998
aF0.0058983400000000002
aF0.0159089
aF0.016565699999999999
aF0.0093645699999999991
aF0.0035720299999999999
aF0.013431800000000001
aF0.0099325999999999998
aF0.011487000000000001
aF0.023052799999999998
aF0.011565799999999999
aF0.0472442
aF0.012326
aF0.00359107
aF0.0080663599999999998
aF0.0039306999999999996
aF0.0054124799999999999
aF0.010417900000000001
aF0.012867099999999999
aF0.0165673
aF0.0131448
aF0.0020251499999999999
aF0.0121622
aF0.0042434100000000004
aF0.019711599999999999
aF0.0098790100000000006
aF0.0056896200000000003
aF0.0101098
aF0.0064515700000000002
aF0.0046645100000000002
aF0.0025396899999999998
aF0.0091699699999999995
aF0.024589
aF0.00091221
aF0.019015399999999998
aF0.0026979299999999999
aF0.0074872999999999997
aF0.0179787
aF0.0143622
aF0.0043769600000000001
aF0.0085987300000000006
aF0.0055554999999999997
aF0.0056720900000000003
aF0.00920728
aF0.0032747499999999999
aF0.00141259
aF0.0089653400000000005
aF0.014777
aF0.0040513600000000004
aF0.0064185500000000003
aF0.0022307099999999999
aF0.0197489
aF0.0079220100000000002
aF0.0060554700000000003
aF0.0055654900000000002
aF0.0093083699999999998
aF0.0089091499999999994
aF0.013323700000000001
aF0.0042630000000000003
aF0.0144137
aF0.00332387
aF0.0059531499999999999
aF0.0119934
aF0.0027750499999999998
aF0.0074619300000000003
aF0.010790299999999999
aF0.010242100000000001
aF0.021800400000000001
aF0.0216943
aF0.0093901000000000002
aF0.028079099999999999
aF0.0221663
aF0.00663739
aF0.0023748699999999998
aF0.0204236
aF0.020197400000000001
aF0.0114725
aF0.025334099999999998
aF0.0089516700000000001
aF0.0119072
aF0.023465099999999999
aF0.0032595499999999999
aF0.0380717
aF0.0104215
aF0.0171702
aF0.00071754000000000002
aF0.00740341
aF0.0098531000000000001
aF0.015759800000000001
aF0.0078743300000000006
aF0.0059799800000000002
aF0.0061349000000000004
aF0.0035407899999999998
aF0.0079348000000000005
aF0.0211393
aF0.0114644
aF0.014664699999999999
aF0.0150163
aF0.012014800000000001
aF0.0057909700000000003
aF0.022797000000000001
aF0.0149631
aF0.0038257299999999998
aF0.017352300000000001
aF0.0137304
aF0.021453
aF0.014815999999999999
aF0.0120605
aF0.0021666400000000001
aF0.0080087000000000005
aF0.0070301399999999998
aF0.0063718200000000003
aF0.019550600000000001
aF0.0057702099999999996
aF0.010661
aF0.034951400000000001
aF0.016016300000000001
aF0.0138607
aF0.00095549000000000003
aF0.0025365100000000001
aF0.0086517699999999996
aF0.0115348
aF0.011018200000000001
aF0.013997900000000001
aF0.012827699999999999
aF0.0045166399999999997
aF0.0149141
aF0.0070726199999999999
aF0.0095920299999999997
aF0.0082739200000000006
aF0.0082729399999999995
aF0.0086761300000000006
aF0.0052497000000000004
aF0.0085823500000000007
aF0.0090581399999999992
aF0.0084618100000000002
aF0.0134488
aF0.012693299999999999
aF0.0028059299999999999
aF0.0084242199999999996
aF0.015469200000000001
aF0.0187662
aF0.0044273300000000002
aF0.0021349400000000001
aF0.0034841099999999999
aF0.0143486
aF0.0136159
aF0.0136749
aF0.0037657400000000001
aF0.0079507899999999992
aF0.0043089299999999999
aF0.012474799999999999
aF0.00751106
aF0.012186900000000001
aF0.0099238
aF0.0072658499999999999
aF0.023706100000000001
aF0.012648700000000001
aF0.0167426
aF0.0188743
aF0.051740599999999998
aF0.00244984
aF0.0070871299999999996
aF0.020789800000000001
aF0.0094273900000000008
aF0.0089259400000000003
aF0.0060954299999999998
aF0.0152867
aF0.0057766299999999996
aF0.0091477999999999993
aF0.0145646
aF0.0125997
aF0.00366878
aF0.0164849
aF0.00151421
aF0.0023145399999999999
aF0.00058865999999999996
aF0.0012561499999999999
aF0.00743379
aF0.015996799999999999
aF0.011549
aF0.0191332
aF0.0147881
aF0.0155207
aF0.0066619100000000001
aF0.00570004
aF0.012227099999999999
aF0.046045999999999997
aF0.021841599999999999
aF0.0048911700000000002
aF0.0149512
aF0.0068319000000000001
aF0.012672299999999999
aF0.0082426300000000008
aF0.015657899999999999
aF0.016489500000000001
aF0.010913000000000001
aF0.0031741899999999999
aF0.0120065
aF0.0146645
aF0.0074779
aF0.00912023
aF0.0093053300000000005
aF0.034648199999999997
aF0.0255097
aF0.0094228699999999999
aF6.5000000000000002e-07
aaa(lp17
(S'4'
S'1'
S'3'
tp18
a(lp19
F0.053402080000000005
aF0.032484100000000002
aF0.053369100000000003
aF0.041263800000000003
aF0.045510200000000001
aF0.048671899999999997
aF0.0417668
aF0.040277500000000001
aF0.081758899999999995
aF0.0346273
aF0.042952799999999999
aF0.074160699999999996
aF0.048669999999999998
aF0.053174800000000001
aF0.051042230000000001
aF0.070503800000000005
aF0.043080899999999998
aF0.048325800000000002
aF0.042034200000000001
aF0.077749800000000008
aF0.0497096
aF0.052115500000000002
aF0.050326000000000003
aF0.075751299999999994
aF0.044405800000000002
aF0.091167200000000004
aF0.036673400000000002
aF0.047564099999999998
aF0.059609280000000001
aF0.064287900000000009
aF0.0589007
aF0.028877400000000001
aF0.0422289
aF0.043655899999999997
aF0.054702720000000003
aF0.044539700000000002
aF0.041282880000000001
aF0.054166400000000003
aF0.058944299999999998
aF0.085134799999999997
aF0.073609999999999995
aF0.058637799999999997
aF0.052200400000000001
aF0.022388499999999999
aF0.043624400000000001
aF0.057618599999999999
aF0.060814100000000003
aF0.048857600000000001
aF0.046612500000000001
aF0.0480422
aF0.063384200000000002
aF0.057494669999999998
aF0.052296700000000002
aF0.037021699999999998
aF0.060460050000000001
aF0.062393499999999998
aF0.042585499999999998
aF0.10641220000000001
aF0.072853699999999993
aF0.041282800000000001
aF0.053379099999999999
aF0.047386299999999999
aF0.054042699999999999
aF0.0522554
aF0.051614800000000002
aF0.049916700000000001
aF0.031556399999999998
aF0.047874300000000002
aF0.055519600000000002
aF0.060290400000000008
aF0.0492883
aF0.043828100000000002
aF0.069107100000000005
aF0.059909900000000002
aF0.070392700000000002
aF0.068822499999999995
aF0.060861539999999999
aF0.08709829999999999
aF0.042605299999999999
aF0.061473220000000002
aF0.043914599999999998
aF0.063752599999999993
aF0.050243800000000005
aF0.084405599999999997
aF0.04743
aF0.049524649999999996
aF0.048996699999999997
aF0.075715599999999994
aF0.0492183
aF0.050775919999999995
aF0.059755599999999999
aF0.043310700000000001
aF0.039548
aF0.046978100000000002
aF0.060555999999999999
aF0.066223199999999996
aF0.044533200000000002
aF0.042819999999999997
aF0.045136500000000003
aF0.040865899999999997
aF0.047100499999999997
aF0.045822799999999997
aF0.044443400000000001
aF0.0373992
aF0.050520299999999997
aF0.0417224
aF0.045556600000000003
aF0.055649130000000005
aF0.045465199999999997
aF0.039883299999999997
aF0.052783299999999998
aF0.044523100000000003
aF0.074282299999999996
aF0.066642499999999993
aF0.069205100000000006
aF0.068994
aF0.096380899999999992
aF0.05271903
aF0.050715099999999999
aF0.053073799999999997
aF0.055935600000000002
aF0.051464200000000002
aF0.058071699999999997
aF0.073400099999999996
aF0.0776366
aF0.064517699999999997
aF0.048802699999999997
aF0.075049599999999994
aF0.047652399999999998
aF0.071031999999999998
aF0.05651287
aF0.049979299999999997
aF0.049000299999999997
aF0.059749400000000001
aF0.056817100000000002
aF0.058993700000000003
aF0.045934099999999999
aF0.065249699999999994
aF0.04300118
aF0.0659632
aF0.069338200000000003
aF0.047350900000000001
aF0.054306300000000002
aF0.049223200000000002
aF0.039975200000000002
aF0.058929099999999998
aF0.040599099999999999
aF0.051851799999999997
aF0.075431299999999993
aF0.060062699999999997
aF0.065061599999999997
aF0.071905369999999996
aF0.056115299999999993
aF0.049655400000000002
aF0.056784500000000002
aF0.063384450000000009
aF0.060728200000000003
aF0.071598599999999998
aF0.047640799999999997
aF0.043723199999999997
aF0.071976899999999996
aF0.040958300000000003
aF0.043515400000000003
aF0.0387102
aF0.045682
aF0.058127400000000003
aF0.059967199999999998
aF0.052184300000000003
aF0.047420700000000003
aF0.0425829
aF0.058986449999999996
aF0.047538200000000003
aF0.049978700000000001
aF0.0490289
aF0.0496032
aF0.070271399999999998
aF0.0592904
aF0.073998700000000001
aF0.073919600000000002
aF0.074744599999999994
aF0.0526171
aF0.061179299999999999
aF0.081841300000000006
aF0.043111400000000001
aF0.060727499999999997
aF0.049905999999999999
aF0.039274200000000002
aF0.0255184
aF0.073875200000000002
aF0.048097599999999997
aF0.043359700000000001
aF0.055941400000000002
aF0.049981200000000003
aF0.048322900000000002
aF0.075584399999999996
aF0.048539499999999999
aF0.052277359999999995
aF0.036811799999999999
aF0.071920300000000006
aF0.046788099999999999
aF0.046622799999999999
aF0.051564600000000002
aF0.050595540000000001
aF0.046705999999999998
aF0.041172800000000002
aF0.075631000000000004
aF0.058152299999999997
aF0.045286600000000003
aF0.070604799999999995
aF0.054674199999999999
aF0.060357800000000003
aF0.050725100000000002
aF0.0732873
aF0.049866300000000002
aF0.066317399999999999
aF0.060636399999999993
aF0.056019300000000001
aF0.059752399999999997
aF0.060141699999999999
aF0.038810799999999999
aF0.040409300000000002
aF0.051629500000000002
aF0.050377699999999997
aF0.045352400000000001
aF0.0545094
aF0.043764299999999999
aF0.049917299999999998
aF0.039510200000000002
aF0.057838399999999998
aF0.045918800000000003
aF0.062728500000000006
aF0.047854099999999997
aF0.045468599999999998
aF0.044287800000000002
aF0.061831400000000002
aF0.070390900000000006
aF0.055157899999999996
aF0.038842799999999997
aF0.048969739999999998
aF0.052019700000000002
aF0.058288700000000006
aF0.068441599999999991
aF0.059145530000000002
aF0.080698599999999995
aF0.081719299999999995
aF0.047793000000000002
aF0.038184299999999997
aF0.046715
aF0.049695599999999999
aF0.041031999999999999
aF0.0540676
aF0.031654300000000003
aF0.05391
aF0.053864299999999997
aF0.040276100000000002
aF0.054874190000000003
aF0.060839299999999999
aF0.066498799999999997
aF0.048618599999999998
aF0.048699100000000002
aF0.059997700000000001
aF0.083465800000000007
aF0.046320300000000002
aF0.042010100000000002
aF0.0773393
aF0.057675400000000002
aF0.037995599999999997
aF0.053909600000000002
aF0.062503409999999995
aF0.058917700000000003
aF0.046211099999999998
aF0.051636399999999999
aF0.046511799999999999
aF0.053769999999999998
aF0.052943499999999998
aF0.046420700000000002
aF0.061634799999999997
aF0.058696999999999999
aF0.065732399999999996
aF0.065694599999999992
aF0.042335499999999998
aF0.062316999999999997
aF0.052898339999999995
aF0.055871900000000002
aF0.072718500000000005
aF0.057242800000000003
aF0.048220300000000001
aF0.074546299999999996
aF0.058044999999999999
aF0.059930900000000002
aF0.064096500000000001
aF0.066930500000000004
aF0.062408579999999998
aF0.042728799999999997
aF0.066608399999999998
aF0.043066599999999997
aF0.053038200000000001
aF0.087139900000000006
aF0.046011499999999997
aF0.051255200000000001
aF0.057962399999999997
aF0.081176600000000002
aF0.044472900000000003
aF0.094541600000000003
aF0.053762499999999998
aF0.065617999999999996
aF0.055787799999999999
aF0.056937599999999998
aF0.053611690000000004
aF0.067985900000000002
aF0.066473199999999996
aF0.034836300000000001
aF0.066195799999999999
aF0.054026699999999997
aF0.06957882
aF0.045164900000000001
aF0.053010599999999998
aF0.059565650000000005
aF0.047484899999999997
aF0.051015999999999999
aF0.046043500000000001
aF0.057793400000000002
aF0.051500400000000002
aF0.079029500000000003
aF0.046120500000000002
aF0.050600100000000002
aF0.086873200000000012
aF0.074002300000000007
aF0.039116100000000001
aF0.053358900000000001
aF0.094485
aF0.047250599999999997
aF0.051370399999999997
aF0.078185000000000004
aF0.045063800000000001
aF0.07238929999999999
aF0.057507199999999994
aF0.049149699999999998
aF0.082213309999999998
aF0.051678200000000001
aF0.054665999999999999
aF0.059962670000000003
aF0.051658200000000001
aF0.046160800000000002
aF0.043825000000000003
aF0.056979099999999998
aF0.047995900000000001
aF0.049791700000000001
aF0.068770299999999993
aF0.073222200000000001
aF0.066226800000000002
aF0.044401599999999999
aF0.064163999999999999
aF0.047485300000000001
aF0.037961500000000002
aF0.059368669999999998
aF0.060898020000000004
aF0.049404299999999998
aF0.060977400000000001
aF0.088761400000000004
aF0.067562799999999992
aF0.037298199999999997
aF0.025013299999999999
aF0.069558700000000001
aF0.045228499999999998
aF0.053302000000000002
aF0.045685900000000002
aF0.0611721
aF0.060865799999999998
aF0.058918600000000002
aF0.052143800000000004
aF0.088933299999999993
aF0.086126399999999992
aF0.054244599999999997
aF0.0653054
aF0.0569734
aF0.055135700000000003
aF0.044844799999999997
aF0.06444076
aF0.050434100000000003
aF0.038082100000000001
aF0.038802900000000001
aF0.054825400000000003
aF0.1039209
aF0.064970100000000003
aF0.046596499999999999
aF0.053513600000000001
aF0.065508419999999998
aF0.045813899999999998
aF0.065229200000000001
aF0.063347399999999998
aF0.033699399999999997
aF0.064804
aF0.0359528
aF0.047408899999999997
aF0.065316899999999997
aF0.078197699999999995
aF0.056994499999999997
aF0.058531699999999999
aF0.042064699999999997
aF0.046374600000000002
aF0.047018699999999997
aF0.069722300000000001
aF0.054216399999999998
aF0.071482900000000002
aF0.052843300000000003
aF0.052063499999999999
aF0.039780599999999999
aF0.057385800000000001
aF0.068075399999999994
aF0.04391507
aF0.0400212
aF0.056237099999999998
aF0.050125200000000002
aF0.065493899999999994
aF0.055219299999999999
aF0.046624800000000001
aF0.061084600000000003
aF0.049026100000000003
aF0.043134800000000001
aF0.051894099999999999
aF0.079056699999999994
aF0.044433500000000001
aF0.069430800000000001
aF0.07902809999999999
aF0.055133500000000002
aF0.071979550000000003
aF0.059537800000000002
aF0.050938120000000003
aF0.039771399999999998
aF0.059975199999999999
aF0.0535828
aF0.057900960000000001
aF0.045505299999999999
aF0.052581799999999998
aF0.062893500000000005
aF0.077359700000000003
aF0.063902829999999994
aF0.070861300000000002
aF0.041465799999999997
aF0.065581600000000004
aF0.04875848
aF0.050957500000000003
aF0.047785899999999999
aF0.052816099999999998
aF0.042149100000000002
aF0.048835099999999999
aF0.063012299999999993
aF0.0471105
aF0.046512299999999999
aF0.054714100000000002
aF0.048419400000000001
aF0.044824500000000003
aF0.077754099999999993
aF0.048047600000000003
aF0.071307200000000001
aF0.063187149999999997
aF0.046695800000000003
aF0.1207922
aF0.055708500000000001
aF0.0517402
aF0.049881580000000002
aF0.054229200000000005
aF0.047749279999999998
aF0.034341999999999998
aF0.053636400000000001
aF0.075466499999999992
aF0.041441800000000001
aF0.058870039999999998
aF0.062047399999999996
aF0.045999199999999997
aF0.047509999999999997
aF0.040273549999999998
aF0.0365037
aF0.058888700000000002
aF0.043033700000000001
aF0.071930599999999997
aF0.069846500000000006
aF0.047607499999999997
aF0.049199010000000001
aF0.050657500000000001
aF0.049694769999999999
aF0.059495399999999997
aF0.044860700000000003
aF0.042510899999999997
aF0.068891099999999997
aF0.040177499999999998
aF0.079526700000000006
aF0.045034699999999997
aF0.047880699999999998
aF0.0315357
aF0.051410299999999999
aF0.039021300000000002
aF0.063343099999999999
aF0.043833900000000002
aF0.041622300000000001
aF0.077135700000000001
aF0.050913
aF0.048002669999999997
aF0.059284000000000003
aF0.050196499999999998
aF0.0574063
aF0.071953600000000006
aF0.0497113
aF0.074854400000000001
aF0.064534999999999995
aF0.062869700000000001
aF0.078509599999999999
aF0.062829399999999994
aF0.048384000000000003
aF0.051579600000000003
aF0.077040899999999995
aF0.057195200000000002
aF0.040142999999999998
aF0.059562999999999998
aF0.061028600000000002
aF0.0523864
aF0.045078600000000003
aF0.062364299999999998
aF0.047271199999999999
aF0.046125699999999999
aF0.059929200000000002
aF0.056886599999999996
aF0.067691699999999994
aF0.049920699999999998
aF0.0482005
aF0.062181300000000002
aF0.0505841
aF0.098792900000000003
aF0.056304399999999998
aF0.061465820000000004
aF0.046061600000000001
aF0.050818500000000003
aF0.040488400000000001
aF0.049819500000000003
aF0.041630199999999999
aF0.0528256
aF0.068212999999999996
aF0.051621399999999998
aF0.046230199999999999
aF0.068099500000000007
aF0.045431399999999997
aF0.052308100000000003
aF0.026527800000000001
aF0.050709600000000001
aF0.042313099999999999
aF0.056054399999999997
aF0.048709099999999998
aF0.045366799999999999
aF0.0487374
aF0.047873800000000001
aF0.045578899999999999
aF0.0595913
aF0.045788200000000001
aF0.062454299999999997
aF0.045606899999999999
aF0.042947199999999998
aF0.045822799999999997
aF0.041474400000000002
aF0.043026799999999997
aF0.10403380000000001
aF0.051141600000000002
aF0.055586299999999998
aF0.068562100000000001
aF0.056299100000000005
aF0.071204600000000007
aF0.053962299999999998
aF0.0444646
aF0.060567900000000001
aF0.063051700000000002
aF0.057405399999999995
aF0.063699539999999999
aF0.083136700000000008
aF0.040492300000000002
aF0.049701799999999997
aF0.073410500000000004
aF0.048459799999999997
aF0.049829699999999998
aF0.059256900000000001
aF0.061629200000000002
aF0.073034299999999996
aF0.043641300000000001
aF0.053564300000000002
aF0.063739599999999993
aF0.043212
aF0.037283400000000001
aF0.0753418
aF0.053891500000000002
aF0.067749420000000005
aF0.038311900000000003
aF0.066588000000000008
aF0.043844399999999999
aF0.038768700000000003
aF0.062748100000000001
aF0.096369800000000005
aF0.051237600000000001
aF0.053111199999999997
aF0.050432900000000003
aF0.043701400000000001
aF0.064260100000000001
aF0.093637499999999999
aF0.042714500000000002
aF0.076867000000000005
aF0.056316400000000003
aF0.068299899999999997
aF0.049217419999999998
aF0.053341199999999998
aF0.046100500000000003
aF0.047335599999999999
aF0.0479522
aF0.046656900000000001
aF0.059049299999999999
aF0.049619799999999999
aF0.0313926
aF0.040014399999999999
aF0.070877499999999996
aF0.047295499999999997
aF0.050437000000000003
aF0.044849899999999998
aF0.0456984
aF0.088034399999999999
aF0.08118729999999999
aF0.062687199999999998
aF0.070659
aF0.049462699999999998
aF0.090338500000000002
aF0.028563100000000001
aF0.077192499999999997
aF0.030983299999999998
aF0.047601440000000002
aF0.0417849
aF0.090196799999999994
aF0.040408800000000002
aF0.050718699999999999
aF0.049969800000000002
aF0.046582100000000001
aF0.079870800000000006
aF0.048848599999999999
aF0.065663700000000005
aF0.06807959999999999
aF0.047331999999999999
aF0.042871399999999997
aF0.083971600000000007
aF0.042687900000000001
aF0.071599399999999994
aF0.047195899999999999
aF0.035823000000000001
aF0.067836599999999997
aF0.034462100000000002
aF0.048595100000000002
aF0.0598483
aF0.080329399999999995
aF0.0542435
aF0.063308400000000001
aF0.0501664
aF0.049927699999999998
aF0.064213000000000006
aF0.048186600000000003
aF0.066886399999999999
aF0.053611539999999999
aF0.043912800000000002
aF0.076121500000000009
aF0.056460499999999997
aF0.056548300000000003
aF0.0604489
aF0.082978400000000008
aF0.038877299999999997
aF0.074957200000000002
aF0.087081599999999995
aF0.047788499999999998
aF0.061259099999999997
aF0.0490342
aF0.041834999999999997
aF0.073396900000000001
aF0.054538000000000003
aF0.087757199999999994
aF0.079766900000000002
aF0.064971200000000007
aF0.0525189
aF0.051711399999999998
aF0.045470099999999999
aF0.081333900000000001
aF0.059507900000000002
aF0.0421085
aF0.066845799999999997
aF0.055465300000000002
aF0.047431500000000001
aF0.047308200000000002
aF0.039522799999999997
aF0.049293299999999998
aF0.030880399999999999
aF0.054785199999999999
aF0.041269199999999999
aF0.064111899999999999
aF0.046693600000000002
aF0.073158799999999996
aF0.072361800000000004
aF0.059999999999999998
aF0.085591399999999998
aF0.044035499999999998
aF0.065770300000000004
aF0.052394999999999997
aF0.040721199999999999
aF0.047507500000000001
aF0.0723409
aF0.055590500000000001
aF0.041261399999999997
aF0.066507299999999991
aF0.0498691
aF0.057487450000000002
aF0.056508999999999997
aF0.046378799999999998
aF0.073188600000000006
aF0.040478899999999998
aF0.044011300000000003
aF0.041839099999999997
aF0.063473799999999997
aF0.047369700000000001
aF0.0444692
aF0.050371899999999997
aF0.042228000000000002
aF0.052224800000000002
aF0.0475615
aF0.038489099999999998
aF0.045481100000000003
aF0.068131300000000006
aF0.070932099999999998
aF0.045386500000000003
aF0.050736799999999999
aF0.048363499999999997
aF0.053346699999999997
aF0.053629799999999998
aF0.048055399999999998
aF0.056758200000000002
aF0.065371899999999997
aF0.050910799999999999
aF0.050621899999999997
aF0.056455699999999998
aF0.043635599999999997
aF0.049909099999999998
aF0.073500599999999999
aF0.046332600000000002
aF0.11797289999999999
aF0.052166480000000001
aF0.042406199999999998
aF0.059339700000000002
aF0.044624869999999997
aF0.055777
aF0.056603000000000001
aF0.044790999999999997
aF0.0457826
aF0.059206099999999998
aF0.0400661
aF0.050105339999999998
aF0.049053909999999999
aF0.073769299999999996
aF0.059795099999999997
aF0.059549000000000005
aF0.048166
aF0.066146499999999997
aF0.050237400000000001
aF0.083413500000000002
aF0.038621099999999998
aF0.091542899999999996
aF0.064611100000000005
aF0.0457872
aF0.048596300000000002
aF0.050219800000000002
aF0.055790899999999997
aF0.043364300000000001
aF0.061971400000000003
aF0.049755500000000001
aF0.071473999999999996
aF0.070471300000000001
aF0.062654299999999996
aF0.077339649999999996
aF0.049383200000000002
aF0.048848900000000001
aF0.057444099999999998
aF0.038738300000000003
aF0.046644400000000003
aF0.048590099999999997
aF0.040079499999999997
aF0.067706700000000009
aF0.063997600000000002
aF0.074960200000000005
aF0.047272599999999998
aF0.059195499999999998
aF0.043425699999999998
aF0.040754899999999997
aF0.0428913
aF0.043505000000000002
aF0.070174600000000004
aF0.045525500000000003
aF0.039240999999999998
aF0.046099300000000003
aF0.051402700000000003
aF0.041646099999999998
aF0.052920300000000003
aF0.057523400000000002
aF0.050448399999999997
aF0.0350274
aF0.054217899999999999
aF0.056936
aF0.063045799999999999
aF0.047091800000000003
aF0.073124900000000007
aF0.037594799999999998
aF0.049553899999999998
aF0.044511700000000001
aF0.052323000000000001
aF0.050705
aF0.054345400000000002
aF0.046151900000000003
aF0.066945500000000005
aF0.060448399999999999
aF0.049936000000000001
aF0.037148100000000003
aF0.074084399999999995
aF0.047582199999999998
aF0.041398200000000003
aF0.054089600000000002
aF0.051423400000000001
aF0.0631163
aF0.049549299999999998
aF0.065476099999999995
aF0.062447699999999995
aF0.032568800000000002
aF0.058280699999999998
aF0.039214499999999999
aF0.0454303
aF0.05613079
aF0.067501699999999998
aF0.052893700000000002
aF0.070894100000000002
aF0.055700800000000002
aF0.053566799999999998
aF0.044496599999999997
aF0.062562300000000001
aF0.041576099999999998
aF0.0518845
aF0.0333607
aF0.0470818
aF0.064065999999999998
aF0.061228600000000001
aF0.066830000000000001
aF0.045003099999999997
aF0.054281799999999998
aF0.062387600000000001
aF0.047901800000000001
aF0.067301700000000006
aF0.054071300000000003
aF0.048533899999999998
aF0.080475799999999986
aF0.046941999999999998
aF0.054600999999999997
aF0.042108399999999997
aF0.073570200000000002
aF0.041887599999999997
aF0.054071899999999999
aF0.0579099
aF0.057820700000000003
aF0.063968999999999998
aF0.045358900000000001
aF0.081808500000000006
aF0.054786399999999999
aF0.040418999999999997
aF0.047916399999999998
aF0.048953700000000003
aF0.044762799999999998
aF0.044518599999999998
aF0.051696600000000002
aF0.0419531
aF0.060729600000000002
aF0.051818999999999997
aF0.060167400000000003
aF0.082118099999999999
aF0.065398899999999996
aF0.037985100000000001
aF0.058779699999999997
aF0.038048199999999997
aF0.0691248
aF0.060726300000000004
aF0.054132399999999997
aF0.060588900000000001
aF0.066852399999999992
aF0.058896999999999998
aF0.052181900000000003
aF0.054242100000000001
aF0.047553900000000003
aF0.0434007
aF0.058394580000000001
aF0.076374799999999993
aF0.068645700000000004
aF0.044359299999999997
aF0.074400400000000005
aF0.082118999999999998
aF0.064104679999999997
aF0.068683499999999995
aF0.059613899999999997
aF0.050750000000000003
aF0.053810539999999997
aF0.043025399999999998
aF0.059285500000000005
aF0.0542336
aF0.055430599999999997
aF0.054813500000000001
aF0.060123500000000003
aF0.051767199999999999
aF0.040930000000000001
aF0.0477343
aF0.061199799999999999
aF0.041663899999999997
aF0.047839300000000001
aF0.052117700000000003
aF0.071536299999999997
aF0.067350499999999994
aF0.056151399999999997
aF0.047496400000000001
aF0.067882200000000004
aF0.075515700000000005
aF0.032368599999999997
aF0.0672233
aF0.061922900000000003
aF0.078712000000000004
aF0.058757799999999999
aF0.043891699999999999
aF0.074014399999999994
aF0.040468799999999999
aF0.046827899999999999
aF0.0404196
aF0.041337499999999999
aF0.056795699999999998
aF0.070129999999999998
aF0.054606300000000003
aF0.059172799999999998
aF0.085721099999999995
aF0.049531699999999998
aF0.0418146
aF0.054191400000000001
aF0.054793099999999997
aF0.0570009
aF0.047202979999999999
aF0.076445700000000005
aF0.052107800000000003
aF0.083829300000000009
aF0.049841799999999999
aF0.043730100000000001
aF0.082665599999999992
aF0.052283900000000001
aF0.062372499999999997
aF0.083300199999999991
aF0.057422500000000001
aF0.059188400000000002
aF0.050069299999999997
aF0.045946000000000001
aF0.046990299999999999
aF0.058960900000000004
aF0.052753500000000002
aF0.076618199999999997
aF0.056090500000000001
aF0.054885000000000003
aF0.055406799999999999
aF0.074875200000000003
aF0.0351502
aF0.050146049999999998
aF0.059260500000000001
aF0.070907200000000004
aF0.056709000000000002
aF0.053447500000000002
aF0.062638399999999997
aF0.059700799999999998
aF0.048816499999999999
aF0.068999900000000003
aF0.043482800000000002
aF0.096509300000000006
aF0.040714599999999997
aF0.089679300000000003
aF0.051822100000000003
aF0.067007200000000003
aF0.045160400000000003
aF0.063327400000000006
aF0.050084099999999999
aF0.042817899999999999
aF0.061541499999999999
aF0.049535700000000002
aF0.079185499999999992
aF0.059281399999999998
aF0.059030799999999994
aF0.057147959999999998
aF0.045515399999999998
aF0.051715799999999999
aF0.046049199999999998
aF0.046938000000000001
aF0.048919400000000002
aF0.064774999999999999
aF0.045602200000000002
aF0.046524000000000003
aF0.045235400000000002
aF0.078306399999999998
aa(lp20
a(lp21
aa.